Archive member included to satisfy reference by file (symbol)

c:/program files (x86)/atmel/studio/7.0/toolchain/avr8/avr8-gnu-toolchain/bin/../lib/gcc/avr/5.4.0/avr51\libgcc.a(_mulsi3.o)
                              build/default/production/Librarias/FUNCTION/function.o (__mulsi3)
c:/program files (x86)/atmel/studio/7.0/toolchain/avr8/avr8-gnu-toolchain/bin/../lib/gcc/avr/5.4.0/avr51\libgcc.a(_divmodhi4.o)
                              build/default/production/Librarias/ATMEGA128API/Atmega128API.o (__divmodhi4)
c:/program files (x86)/atmel/studio/7.0/toolchain/avr8/avr8-gnu-toolchain/bin/../lib/gcc/avr/5.4.0/avr51\libgcc.a(_udivmodsi4.o)
                              build/default/production/Librarias/ATMEGA128API/Atmega128API.o (__udivmodsi4)
c:/program files (x86)/atmel/studio/7.0/toolchain/avr8/avr8-gnu-toolchain/bin/../lib/gcc/avr/5.4.0/avr51\libgcc.a(_divmodsi4.o)
                              build/default/production/Librarias/FUNCTION/function.o (__divmodsi4)
c:/program files (x86)/atmel/studio/7.0/toolchain/avr8/avr8-gnu-toolchain/bin/../lib/gcc/avr/5.4.0/avr51\libgcc.a(_negsi2.o)
                              c:/program files (x86)/atmel/studio/7.0/toolchain/avr8/avr8-gnu-toolchain/bin/../lib/gcc/avr/5.4.0/avr51\libgcc.a(_divmodsi4.o) (__negsi2)
c:/program files (x86)/atmel/studio/7.0/toolchain/avr8/avr8-gnu-toolchain/bin/../lib/gcc/avr/5.4.0/avr51\libgcc.a(_exit.o)
                              C:/Program Files (x86)/Microchip/MPLABX/v5.40/packs/Microchip/ATmega_DFP/2.2.108/gcc/dev/atmega128/avr51/crtatmega128.o (exit)
c:/program files (x86)/atmel/studio/7.0/toolchain/avr8/avr8-gnu-toolchain/bin/../lib/gcc/avr/5.4.0/avr51\libgcc.a(_tablejump2.o)
                              build/default/production/Librarias/ATMEGA128API/Atmega128API.o (__tablejump2__)
c:/program files (x86)/atmel/studio/7.0/toolchain/avr8/avr8-gnu-toolchain/bin/../lib/gcc/avr/5.4.0/avr51\libgcc.a(_copy_data.o)
                              build/default/production/Librarias/ATMEGA128API/Atmega128API.o (__do_copy_data)
c:/program files (x86)/atmel/studio/7.0/toolchain/avr8/avr8-gnu-toolchain/bin/../lib/gcc/avr/5.4.0/avr51\libgcc.a(_clear_bss.o)
                              build/default/production/Librarias/ATMEGA128API/Atmega128API.o (__do_clear_bss)
c:/program files (x86)/atmel/studio/7.0/toolchain/avr8/avr8-gnu-toolchain/bin/../lib/gcc/avr/5.4.0/avr51\libgcc.a(_umulhisi3.o)
                              build/default/production/Librarias/FUNCTION/function.o (__umulhisi3)
c:/program files (x86)/atmel/studio/7.0/toolchain/avr8/avr8-gnu-toolchain/bin/../lib/gcc/avr/5.4.0/avr51\libgcc.a(_muluhisi3.o)
                              c:/program files (x86)/atmel/studio/7.0/toolchain/avr8/avr8-gnu-toolchain/bin/../lib/gcc/avr/5.4.0/avr51\libgcc.a(_mulsi3.o) (__muluhisi3)
c:/program files (x86)/atmel/studio/7.0/toolchain/avr8/avr8-gnu-toolchain/bin/../lib/gcc/avr/5.4.0/avr51\libgcc.a(_udivmodhi4.o)
                              c:/program files (x86)/atmel/studio/7.0/toolchain/avr8/avr8-gnu-toolchain/bin/../lib/gcc/avr/5.4.0/avr51\libgcc.a(_divmodhi4.o) (__udivmodhi4)
C:/Program Files (x86)/Microchip/MPLABX/v5.40/packs/Microchip/ATmega_DFP/2.2.108/gcc/dev/atmega128/avr51\libatmega128.a(eerd_block.o)
                              build/default/production/Librarias/EEPROM/eeprom.o (eeprom_read_block)
C:/Program Files (x86)/Microchip/MPLABX/v5.40/packs/Microchip/ATmega_DFP/2.2.108/gcc/dev/atmega128/avr51\libatmega128.a(eerd_byte.o)
                              build/default/production/Librarias/EEPROM/eeprom.o (eeprom_read_byte)
C:/Program Files (x86)/Microchip/MPLABX/v5.40/packs/Microchip/ATmega_DFP/2.2.108/gcc/dev/atmega128/avr51\libatmega128.a(eerd_word.o)
                              build/default/production/Librarias/EEPROM/eeprom.o (eeprom_read_word)
C:/Program Files (x86)/Microchip/MPLABX/v5.40/packs/Microchip/ATmega_DFP/2.2.108/gcc/dev/atmega128/avr51\libatmega128.a(eeupd_block.o)
                              build/default/production/Librarias/EEPROM/eeprom.o (eeprom_update_block)
C:/Program Files (x86)/Microchip/MPLABX/v5.40/packs/Microchip/ATmega_DFP/2.2.108/gcc/dev/atmega128/avr51\libatmega128.a(eeupd_byte.o)
                              build/default/production/Librarias/EEPROM/eeprom.o (eeprom_update_byte)
C:/Program Files (x86)/Microchip/MPLABX/v5.40/packs/Microchip/ATmega_DFP/2.2.108/gcc/dev/atmega128/avr51\libatmega128.a(eeupd_dword.o)
                              build/default/production/Librarias/EEPROM/eeprom.o (eeprom_update_float)
C:/Program Files (x86)/Microchip/MPLABX/v5.40/packs/Microchip/ATmega_DFP/2.2.108/gcc/dev/atmega128/avr51\libatmega128.a(eeupd_word.o)
                              build/default/production/Librarias/EEPROM/eeprom.o (eeprom_update_word)
C:/Program Files (x86)/Microchip/MPLABX/v5.40/packs/Microchip/ATmega_DFP/2.2.108/gcc/dev/atmega128/avr51\libatmega128.a(eewr_block.o)
                              build/default/production/Librarias/EEPROM/eeprom.o (eeprom_write_block)
C:/Program Files (x86)/Microchip/MPLABX/v5.40/packs/Microchip/ATmega_DFP/2.2.108/gcc/dev/atmega128/avr51\libatmega128.a(eewr_byte.o)
                              build/default/production/Librarias/EEPROM/eeprom.o (eeprom_write_byte)
C:/Program Files (x86)/Microchip/MPLABX/v5.40/packs/Microchip/ATmega_DFP/2.2.108/gcc/dev/atmega128/avr51\libatmega128.a(eewr_dword.o)
                              build/default/production/Librarias/EEPROM/eeprom.o (eeprom_write_dword)
C:/Program Files (x86)/Microchip/MPLABX/v5.40/packs/Microchip/ATmega_DFP/2.2.108/gcc/dev/atmega128/avr51\libatmega128.a(eewr_word.o)
                              build/default/production/Librarias/EEPROM/eeprom.o (eeprom_write_word)

Allocating common symbols
Common symbol       size              file

keypad_PORT         0x2               build/default/production/Librarias/KEYPAD/keypad.o
lcd0_PIN            0x2               build/default/production/Librarias/LCD/lcd.o
uart_msg            0x20              build/default/production/Librarias/ATMEGA128API/Atmega128API.o
FUNCstr             0x14              build/default/production/Librarias/FUNCTION/function.o
timer1_state        0x1               build/default/production/Librarias/ATMEGA128API/Atmega128API.o
keypad_dataf        0x4               build/default/production/Librarias/KEYPAD/keypad.o
lcd1_DDR            0x2               build/default/production/Librarias/LCD/lcd.o
keypad_datai        0x4               build/default/production/Librarias/KEYPAD/keypad.o
lcd1_detect         0x1               build/default/production/Librarias/LCD/lcd.o
lcd1_PIN            0x2               build/default/production/Librarias/LCD/lcd.o
tmp2                0x7               build/default/production/Librarias/LFSM/lfsm.o
lcd0_DDR            0x2               build/default/production/Librarias/LCD/lcd.o
KEYPADSTRINGINDEX   0x1               build/default/production/Librarias/KEYPAD/keypad.o
lcd0_detect         0x1               build/default/production/Librarias/LCD/lcd.o
uart1_index         0x2               build/default/production/Librarias/ATMEGA128API/Atmega128API.o
timer3_state        0x1               build/default/production/Librarias/ATMEGA128API/Atmega128API.o
keypad_PIN          0x2               build/default/production/Librarias/KEYPAD/keypad.o
uart1_msg           0x20              build/default/production/Librarias/ATMEGA128API/Atmega128API.o
data                0x16              build/default/production/Librarias/KEYPAD/keypad.o
timer2_state        0x1               build/default/production/Librarias/ATMEGA128API/Atmega128API.o
uart_index          0x2               build/default/production/Librarias/ATMEGA128API/Atmega128API.o
lcd0_PORT           0x2               build/default/production/Librarias/LCD/lcd.o
twi_chip_id         0x1               build/default/production/Librarias/ATMEGA128API/Atmega128API.o
lcd1_PORT           0x2               build/default/production/Librarias/LCD/lcd.o
keypad_DDR          0x2               build/default/production/Librarias/KEYPAD/keypad.o
i2c_output          0x1               build/default/production/Librarias/ATMEGA128API/Atmega128API.o
tmp1                0x7               build/default/production/Librarias/LFSM/lfsm.o
timer0_state        0x1               build/default/production/Librarias/ATMEGA128API/Atmega128API.o

Discarded input sections

 .data          0x00000000        0x0 C:/Program Files (x86)/Microchip/MPLABX/v5.40/packs/Microchip/ATmega_DFP/2.2.108/gcc/dev/atmega128/avr51/crtatmega128.o
 .bss           0x00000000        0x0 C:/Program Files (x86)/Microchip/MPLABX/v5.40/packs/Microchip/ATmega_DFP/2.2.108/gcc/dev/atmega128/avr51/crtatmega128.o
 .text          0x00000000        0x0 build/default/production/Librarias/ATMEGA128API/Atmega128API.o
 .data          0x00000000        0x0 build/default/production/Librarias/ATMEGA128API/Atmega128API.o
 .bss           0x00000000        0x0 build/default/production/Librarias/ATMEGA128API/Atmega128API.o
 .text.ANALOG_read
                0x00000000       0x14 build/default/production/Librarias/ATMEGA128API/Atmega128API.o
 .text.INTERRUPT_reset_status
                0x00000000       0x5a build/default/production/Librarias/ATMEGA128API/Atmega128API.o
 .text.INTERRUPT_set
                0x00000000      0x1d0 build/default/production/Librarias/ATMEGA128API/Atmega128API.o
 .progmem.gcc_sw_table.INTERRUPT_set
                0x00000000       0x10 build/default/production/Librarias/ATMEGA128API/Atmega128API.o
 .text.INTERRUPT_off
                0x00000000       0x56 build/default/production/Librarias/ATMEGA128API/Atmega128API.o
 .progmem.gcc_sw_table.INTERRUPT_off
                0x00000000       0x10 build/default/production/Librarias/ATMEGA128API/Atmega128API.o
 .text.spi_transfer_sync
                0x00000000       0x2c build/default/production/Librarias/ATMEGA128API/Atmega128API.o
 .text.spi_transmit_sync
                0x00000000       0x24 build/default/production/Librarias/ATMEGA128API/Atmega128API.o
 .text.spi_fast_shift
                0x00000000        0xa build/default/production/Librarias/ATMEGA128API/Atmega128API.o
 .text.TIMER_COUNTER0_start
                0x00000000       0x8a build/default/production/Librarias/ATMEGA128API/Atmega128API.o
 .text.TIMER_COUNTER0_compoutmode
                0x00000000       0x2a build/default/production/Librarias/ATMEGA128API/Atmega128API.o
 .text.TIMER_COUNTER0_compare
                0x00000000        0x4 build/default/production/Librarias/ATMEGA128API/Atmega128API.o
 .text.TIMER_COUNTER0_stop
                0x00000000        0xe build/default/production/Librarias/ATMEGA128API/Atmega128API.o
 .text.TIMER_COUNTER1_start
                0x00000000       0x8e build/default/production/Librarias/ATMEGA128API/Atmega128API.o
 .text.TIMER_COUNTER1_compoutmodeA
                0x00000000       0x2a build/default/production/Librarias/ATMEGA128API/Atmega128API.o
 .text.TIMER_COUNTER1_compoutmodeB
                0x00000000       0x2a build/default/production/Librarias/ATMEGA128API/Atmega128API.o
 .text.TIMER_COUNTER1_compoutmodeC
                0x00000000       0x2a build/default/production/Librarias/ATMEGA128API/Atmega128API.o
 .text.TIMER_COUNTER1_compareA
                0x00000000        0x6 build/default/production/Librarias/ATMEGA128API/Atmega128API.o
 .text.TIMER_COUNTER1_compareB
                0x00000000        0x6 build/default/production/Librarias/ATMEGA128API/Atmega128API.o
 .text.TIMER_COUNTER1_compareC
                0x00000000        0xa build/default/production/Librarias/ATMEGA128API/Atmega128API.o
 .text.TIMER_COUNTER1_stop
                0x00000000       0x10 build/default/production/Librarias/ATMEGA128API/Atmega128API.o
 .text.TIMER_COUNTER2_start
                0x00000000       0x8a build/default/production/Librarias/ATMEGA128API/Atmega128API.o
 .text.TIMER_COUNTER2_compoutmode
                0x00000000       0x2a build/default/production/Librarias/ATMEGA128API/Atmega128API.o
 .text.TIMER_COUNTER2_compare
                0x00000000        0x4 build/default/production/Librarias/ATMEGA128API/Atmega128API.o
 .text.TIMER_COUNTER2_stop
                0x00000000        0xe build/default/production/Librarias/ATMEGA128API/Atmega128API.o
 .text.TIMER_COUNTER3_start
                0x00000000       0xb6 build/default/production/Librarias/ATMEGA128API/Atmega128API.o
 .text.TIMER_COUNTER3_compoutmodeA
                0x00000000       0x36 build/default/production/Librarias/ATMEGA128API/Atmega128API.o
 .text.TIMER_COUNTER3_compoutmodeB
                0x00000000       0x36 build/default/production/Librarias/ATMEGA128API/Atmega128API.o
 .text.TIMER_COUNTER3_compoutmodeC
                0x00000000       0x36 build/default/production/Librarias/ATMEGA128API/Atmega128API.o
 .text.TIMER_COUNTER3_compareA
                0x00000000        0xa build/default/production/Librarias/ATMEGA128API/Atmega128API.o
 .text.TIMER_COUNTER3_compareB
                0x00000000        0xa build/default/production/Librarias/ATMEGA128API/Atmega128API.o
 .text.TIMER_COUNTER3_compareC
                0x00000000        0xa build/default/production/Librarias/ATMEGA128API/Atmega128API.o
 .text.TIMER_COUNTER3_stop
                0x00000000       0x18 build/default/production/Librarias/ATMEGA128API/Atmega128API.o
 .text.uart_getc
                0x00000000       0x3a build/default/production/Librarias/ATMEGA128API/Atmega128API.o
 .text.uart_available
                0x00000000       0x1a build/default/production/Librarias/ATMEGA128API/Atmega128API.o
 .text.uart_flush
                0x00000000        0xa build/default/production/Librarias/ATMEGA128API/Atmega128API.o
 .text.uart1_getc
                0x00000000       0x3a build/default/production/Librarias/ATMEGA128API/Atmega128API.o
 .text.uart1_available
                0x00000000       0x1a build/default/production/Librarias/ATMEGA128API/Atmega128API.o
 .text.uart1_flush
                0x00000000        0xa build/default/production/Librarias/ATMEGA128API/Atmega128API.o
 .text.ANALOGenable
                0x00000000      0x12c build/default/production/Librarias/ATMEGA128API/Atmega128API.o
 .text.INTERRUPTenable
                0x00000000       0x44 build/default/production/Librarias/ATMEGA128API/Atmega128API.o
 .text.SPIenable
                0x00000000      0x10c build/default/production/Librarias/ATMEGA128API/Atmega128API.o
 .text.spi_default
                0x00000000       0x16 build/default/production/Librarias/ATMEGA128API/Atmega128API.o
 .text.TIMER_COUNTER0enable
                0x00000000       0x84 build/default/production/Librarias/ATMEGA128API/Atmega128API.o
 .text.TIMER_COUNTER1enable
                0x00000000      0x1ec build/default/production/Librarias/ATMEGA128API/Atmega128API.o
 .progmem.gcc_sw_table.TIMER_COUNTER1enable
                0x00000000       0x36 build/default/production/Librarias/ATMEGA128API/Atmega128API.o
 .text.TIMER_COUNTER2enable
                0x00000000       0x7e build/default/production/Librarias/ATMEGA128API/Atmega128API.o
 .text.TIMER_COUNTER3enable
                0x00000000      0x264 build/default/production/Librarias/ATMEGA128API/Atmega128API.o
 .progmem.gcc_sw_table.TIMER_COUNTER3enable
                0x00000000       0x36 build/default/production/Librarias/ATMEGA128API/Atmega128API.o
 .text.I2Cenable
                0x00000000       0xe0 build/default/production/Librarias/ATMEGA128API/Atmega128API.o
 .text.twi_transmit
                0x00000000       0x48 build/default/production/Librarias/ATMEGA128API/Atmega128API.o
 .text.twi_stop
                0x00000000       0x2c build/default/production/Librarias/ATMEGA128API/Atmega128API.o
 .text.twi_status
                0x00000000        0x8 build/default/production/Librarias/ATMEGA128API/Atmega128API.o
 .text.twi_poll
                0x00000000       0x28 build/default/production/Librarias/ATMEGA128API/Atmega128API.o
 .text.twi_start
                0x00000000       0x24 build/default/production/Librarias/ATMEGA128API/Atmega128API.o
 .text.twi_master_connect
                0x00000000       0x36 build/default/production/Librarias/ATMEGA128API/Atmega128API.o
 .text.twi_master_write
                0x00000000       0x38 build/default/production/Librarias/ATMEGA128API/Atmega128API.o
 .text.twi_master_read
                0x00000000       0xa0 build/default/production/Librarias/ATMEGA128API/Atmega128API.o
 .text.UARTenable
                0x00000000      0x1d6 build/default/production/Librarias/ATMEGA128API/Atmega128API.o
 .text.UART_Rx_pop
                0x00000000       0x2a build/default/production/Librarias/ATMEGA128API/Atmega128API.o
 .rodata.str1.1
                0x00000000        0x6 build/default/production/Librarias/ATMEGA128API/Atmega128API.o
 .text.uart_read
                0x00000000       0x5a build/default/production/Librarias/ATMEGA128API/Atmega128API.o
 .text.UART_Tx_push
                0x00000000       0x26 build/default/production/Librarias/ATMEGA128API/Atmega128API.o
 .text.uart_putc
                0x00000000        0x8 build/default/production/Librarias/ATMEGA128API/Atmega128API.o
 .text.uart_puts
                0x00000000       0x1e build/default/production/Librarias/ATMEGA128API/Atmega128API.o
 .text.uart_puts_p
                0x00000000       0x24 build/default/production/Librarias/ATMEGA128API/Atmega128API.o
 .text.UART1enable
                0x00000000      0x210 build/default/production/Librarias/ATMEGA128API/Atmega128API.o
 .text.UART1_Rx_pop
                0x00000000       0x2a build/default/production/Librarias/ATMEGA128API/Atmega128API.o
 .text.uart1_read
                0x00000000       0x5a build/default/production/Librarias/ATMEGA128API/Atmega128API.o
 .text.UART1_Tx_push
                0x00000000       0x26 build/default/production/Librarias/ATMEGA128API/Atmega128API.o
 .text.uart1_putc
                0x00000000       0x10 build/default/production/Librarias/ATMEGA128API/Atmega128API.o
 .text.uart1_puts
                0x00000000       0x1e build/default/production/Librarias/ATMEGA128API/Atmega128API.o
 .text.uart1_puts_p
                0x00000000       0x24 build/default/production/Librarias/ATMEGA128API/Atmega128API.o
 COMMON         0x00000000       0x4a build/default/production/Librarias/ATMEGA128API/Atmega128API.o
 .text          0x00000000        0x0 build/default/production/Librarias/FUNCTION/function.o
 .data          0x00000000        0x0 build/default/production/Librarias/FUNCTION/function.o
 .bss           0x00000000        0x0 build/default/production/Librarias/FUNCTION/function.o
 .text.leap_year_check
                0x00000000       0x70 build/default/production/Librarias/FUNCTION/function.o
 .text          0x00000000        0x0 build/default/production/Librarias/KEYPAD/keypad.o
 .data          0x00000000        0x0 build/default/production/Librarias/KEYPAD/keypad.o
 .bss           0x00000000        0x0 build/default/production/Librarias/KEYPAD/keypad.o
 .text.KEYPADlh
                0x00000000        0x6 build/default/production/Librarias/KEYPAD/keypad.o
 .text.KEYPADhl
                0x00000000        0x6 build/default/production/Librarias/KEYPAD/keypad.o
 .text          0x00000000        0x0 build/default/production/Librarias/LCD/lcd.o
 .data          0x00000000        0x0 build/default/production/Librarias/LCD/lcd.o
 .bss           0x00000000        0x0 build/default/production/Librarias/LCD/lcd.o
 .text.LCD1_write
                0x00000000      0x188 build/default/production/Librarias/LCD/lcd.o
 .text.LCD1_read
                0x00000000       0xf6 build/default/production/Librarias/LCD/lcd.o
 .text.LCD1_BF  0x00000000       0x28 build/default/production/Librarias/LCD/lcd.o
 .text.LCD1_putch
                0x00000000        0xe build/default/production/Librarias/LCD/lcd.o
 .text.LCD1_getch
                0x00000000       0x16 build/default/production/Librarias/LCD/lcd.o
 .text.LCD1_string
                0x00000000       0x26 build/default/production/Librarias/LCD/lcd.o
 .text.LCD1_string_size
                0x00000000       0x66 build/default/production/Librarias/LCD/lcd.o
 .text.LCD1_hspace
                0x00000000       0x1e build/default/production/Librarias/LCD/lcd.o
 .text.LCD1_gotoxy
                0x00000000       0x5e build/default/production/Librarias/LCD/lcd.o
 .text.LCD1_clear
                0x00000000       0x18 build/default/production/Librarias/LCD/lcd.o
 .text.LCD0_strobe
                0x00000000       0x1e build/default/production/Librarias/LCD/lcd.o
 .text.LCD1_inic
                0x00000000       0x98 build/default/production/Librarias/LCD/lcd.o
 .text.LCD1enable
                0x00000000       0xb0 build/default/production/Librarias/LCD/lcd.o
 .text.LCD1_reboot
                0x00000000       0x24 build/default/production/Librarias/LCD/lcd.o
 .text.LCD1_strobe
                0x00000000       0x1e build/default/production/Librarias/LCD/lcd.o
 .text.LCD_ticks
                0x00000000       0x14 build/default/production/Librarias/LCD/lcd.o
 .text          0x00000000        0x0 build/default/production/Librarias/LFSM/lfsm.o
 .data          0x00000000        0x0 build/default/production/Librarias/LFSM/lfsm.o
 .bss           0x00000000        0x0 build/default/production/Librarias/LFSM/lfsm.o
 .text.LFSMlh   0x00000000        0x6 build/default/production/Librarias/LFSM/lfsm.o
 .text.LFSMhl   0x00000000        0x6 build/default/production/Librarias/LFSM/lfsm.o
 .text.LFSMoutputcalc
                0x00000000        0xc build/default/production/Librarias/LFSM/lfsm.o
 .rodata.tmask  0x00000000        0x1 build/default/production/Librarias/LFSM/lfsm.o
 .text          0x00000000        0x0 build/default/production/Librarias/EEPROM/eeprom.o
 .data          0x00000000        0x0 build/default/production/Librarias/EEPROM/eeprom.o
 .bss           0x00000000        0x0 build/default/production/Librarias/EEPROM/eeprom.o
 .text          0x00000000        0x0 build/default/production/main.o
 .data          0x00000000        0x0 build/default/production/main.o
 .bss           0x00000000        0x0 build/default/production/main.o
 .text          0x00000000        0x0 c:/program files (x86)/atmel/studio/7.0/toolchain/avr8/avr8-gnu-toolchain/bin/../lib/gcc/avr/5.4.0/avr51\libgcc.a(_mulsi3.o)
 .data          0x00000000        0x0 c:/program files (x86)/atmel/studio/7.0/toolchain/avr8/avr8-gnu-toolchain/bin/../lib/gcc/avr/5.4.0/avr51\libgcc.a(_mulsi3.o)
 .bss           0x00000000        0x0 c:/program files (x86)/atmel/studio/7.0/toolchain/avr8/avr8-gnu-toolchain/bin/../lib/gcc/avr/5.4.0/avr51\libgcc.a(_mulsi3.o)
 .text.libgcc.div
                0x00000000        0x0 c:/program files (x86)/atmel/studio/7.0/toolchain/avr8/avr8-gnu-toolchain/bin/../lib/gcc/avr/5.4.0/avr51\libgcc.a(_mulsi3.o)
 .text.libgcc   0x00000000        0x0 c:/program files (x86)/atmel/studio/7.0/toolchain/avr8/avr8-gnu-toolchain/bin/../lib/gcc/avr/5.4.0/avr51\libgcc.a(_mulsi3.o)
 .text.libgcc.prologue
                0x00000000        0x0 c:/program files (x86)/atmel/studio/7.0/toolchain/avr8/avr8-gnu-toolchain/bin/../lib/gcc/avr/5.4.0/avr51\libgcc.a(_mulsi3.o)
 .text.libgcc.builtins
                0x00000000        0x0 c:/program files (x86)/atmel/studio/7.0/toolchain/avr8/avr8-gnu-toolchain/bin/../lib/gcc/avr/5.4.0/avr51\libgcc.a(_mulsi3.o)
 .text.libgcc.fmul
                0x00000000        0x0 c:/program files (x86)/atmel/studio/7.0/toolchain/avr8/avr8-gnu-toolchain/bin/../lib/gcc/avr/5.4.0/avr51\libgcc.a(_mulsi3.o)
 .text.libgcc.fixed
                0x00000000        0x0 c:/program files (x86)/atmel/studio/7.0/toolchain/avr8/avr8-gnu-toolchain/bin/../lib/gcc/avr/5.4.0/avr51\libgcc.a(_mulsi3.o)
 .text          0x00000000        0x0 c:/program files (x86)/atmel/studio/7.0/toolchain/avr8/avr8-gnu-toolchain/bin/../lib/gcc/avr/5.4.0/avr51\libgcc.a(_divmodhi4.o)
 .data          0x00000000        0x0 c:/program files (x86)/atmel/studio/7.0/toolchain/avr8/avr8-gnu-toolchain/bin/../lib/gcc/avr/5.4.0/avr51\libgcc.a(_divmodhi4.o)
 .bss           0x00000000        0x0 c:/program files (x86)/atmel/studio/7.0/toolchain/avr8/avr8-gnu-toolchain/bin/../lib/gcc/avr/5.4.0/avr51\libgcc.a(_divmodhi4.o)
 .text.libgcc.mul
                0x00000000        0x0 c:/program files (x86)/atmel/studio/7.0/toolchain/avr8/avr8-gnu-toolchain/bin/../lib/gcc/avr/5.4.0/avr51\libgcc.a(_divmodhi4.o)
 .text.libgcc   0x00000000        0x0 c:/program files (x86)/atmel/studio/7.0/toolchain/avr8/avr8-gnu-toolchain/bin/../lib/gcc/avr/5.4.0/avr51\libgcc.a(_divmodhi4.o)
 .text.libgcc.prologue
                0x00000000        0x0 c:/program files (x86)/atmel/studio/7.0/toolchain/avr8/avr8-gnu-toolchain/bin/../lib/gcc/avr/5.4.0/avr51\libgcc.a(_divmodhi4.o)
 .text.libgcc.builtins
                0x00000000        0x0 c:/program files (x86)/atmel/studio/7.0/toolchain/avr8/avr8-gnu-toolchain/bin/../lib/gcc/avr/5.4.0/avr51\libgcc.a(_divmodhi4.o)
 .text.libgcc.fmul
                0x00000000        0x0 c:/program files (x86)/atmel/studio/7.0/toolchain/avr8/avr8-gnu-toolchain/bin/../lib/gcc/avr/5.4.0/avr51\libgcc.a(_divmodhi4.o)
 .text.libgcc.fixed
                0x00000000        0x0 c:/program files (x86)/atmel/studio/7.0/toolchain/avr8/avr8-gnu-toolchain/bin/../lib/gcc/avr/5.4.0/avr51\libgcc.a(_divmodhi4.o)
 .text          0x00000000        0x0 c:/program files (x86)/atmel/studio/7.0/toolchain/avr8/avr8-gnu-toolchain/bin/../lib/gcc/avr/5.4.0/avr51\libgcc.a(_udivmodsi4.o)
 .data          0x00000000        0x0 c:/program files (x86)/atmel/studio/7.0/toolchain/avr8/avr8-gnu-toolchain/bin/../lib/gcc/avr/5.4.0/avr51\libgcc.a(_udivmodsi4.o)
 .bss           0x00000000        0x0 c:/program files (x86)/atmel/studio/7.0/toolchain/avr8/avr8-gnu-toolchain/bin/../lib/gcc/avr/5.4.0/avr51\libgcc.a(_udivmodsi4.o)
 .text.libgcc.mul
                0x00000000        0x0 c:/program files (x86)/atmel/studio/7.0/toolchain/avr8/avr8-gnu-toolchain/bin/../lib/gcc/avr/5.4.0/avr51\libgcc.a(_udivmodsi4.o)
 .text.libgcc   0x00000000        0x0 c:/program files (x86)/atmel/studio/7.0/toolchain/avr8/avr8-gnu-toolchain/bin/../lib/gcc/avr/5.4.0/avr51\libgcc.a(_udivmodsi4.o)
 .text.libgcc.prologue
                0x00000000        0x0 c:/program files (x86)/atmel/studio/7.0/toolchain/avr8/avr8-gnu-toolchain/bin/../lib/gcc/avr/5.4.0/avr51\libgcc.a(_udivmodsi4.o)
 .text.libgcc.builtins
                0x00000000        0x0 c:/program files (x86)/atmel/studio/7.0/toolchain/avr8/avr8-gnu-toolchain/bin/../lib/gcc/avr/5.4.0/avr51\libgcc.a(_udivmodsi4.o)
 .text.libgcc.fmul
                0x00000000        0x0 c:/program files (x86)/atmel/studio/7.0/toolchain/avr8/avr8-gnu-toolchain/bin/../lib/gcc/avr/5.4.0/avr51\libgcc.a(_udivmodsi4.o)
 .text.libgcc.fixed
                0x00000000        0x0 c:/program files (x86)/atmel/studio/7.0/toolchain/avr8/avr8-gnu-toolchain/bin/../lib/gcc/avr/5.4.0/avr51\libgcc.a(_udivmodsi4.o)
 .text          0x00000000        0x0 c:/program files (x86)/atmel/studio/7.0/toolchain/avr8/avr8-gnu-toolchain/bin/../lib/gcc/avr/5.4.0/avr51\libgcc.a(_divmodsi4.o)
 .data          0x00000000        0x0 c:/program files (x86)/atmel/studio/7.0/toolchain/avr8/avr8-gnu-toolchain/bin/../lib/gcc/avr/5.4.0/avr51\libgcc.a(_divmodsi4.o)
 .bss           0x00000000        0x0 c:/program files (x86)/atmel/studio/7.0/toolchain/avr8/avr8-gnu-toolchain/bin/../lib/gcc/avr/5.4.0/avr51\libgcc.a(_divmodsi4.o)
 .text.libgcc.mul
                0x00000000        0x0 c:/program files (x86)/atmel/studio/7.0/toolchain/avr8/avr8-gnu-toolchain/bin/../lib/gcc/avr/5.4.0/avr51\libgcc.a(_divmodsi4.o)
 .text.libgcc   0x00000000        0x0 c:/program files (x86)/atmel/studio/7.0/toolchain/avr8/avr8-gnu-toolchain/bin/../lib/gcc/avr/5.4.0/avr51\libgcc.a(_divmodsi4.o)
 .text.libgcc.prologue
                0x00000000        0x0 c:/program files (x86)/atmel/studio/7.0/toolchain/avr8/avr8-gnu-toolchain/bin/../lib/gcc/avr/5.4.0/avr51\libgcc.a(_divmodsi4.o)
 .text.libgcc.builtins
                0x00000000        0x0 c:/program files (x86)/atmel/studio/7.0/toolchain/avr8/avr8-gnu-toolchain/bin/../lib/gcc/avr/5.4.0/avr51\libgcc.a(_divmodsi4.o)
 .text.libgcc.fmul
                0x00000000        0x0 c:/program files (x86)/atmel/studio/7.0/toolchain/avr8/avr8-gnu-toolchain/bin/../lib/gcc/avr/5.4.0/avr51\libgcc.a(_divmodsi4.o)
 .text.libgcc.fixed
                0x00000000        0x0 c:/program files (x86)/atmel/studio/7.0/toolchain/avr8/avr8-gnu-toolchain/bin/../lib/gcc/avr/5.4.0/avr51\libgcc.a(_divmodsi4.o)
 .text          0x00000000        0x0 c:/program files (x86)/atmel/studio/7.0/toolchain/avr8/avr8-gnu-toolchain/bin/../lib/gcc/avr/5.4.0/avr51\libgcc.a(_negsi2.o)
 .data          0x00000000        0x0 c:/program files (x86)/atmel/studio/7.0/toolchain/avr8/avr8-gnu-toolchain/bin/../lib/gcc/avr/5.4.0/avr51\libgcc.a(_negsi2.o)
 .bss           0x00000000        0x0 c:/program files (x86)/atmel/studio/7.0/toolchain/avr8/avr8-gnu-toolchain/bin/../lib/gcc/avr/5.4.0/avr51\libgcc.a(_negsi2.o)
 .text.libgcc.mul
                0x00000000        0x0 c:/program files (x86)/atmel/studio/7.0/toolchain/avr8/avr8-gnu-toolchain/bin/../lib/gcc/avr/5.4.0/avr51\libgcc.a(_negsi2.o)
 .text.libgcc   0x00000000        0x0 c:/program files (x86)/atmel/studio/7.0/toolchain/avr8/avr8-gnu-toolchain/bin/../lib/gcc/avr/5.4.0/avr51\libgcc.a(_negsi2.o)
 .text.libgcc.prologue
                0x00000000        0x0 c:/program files (x86)/atmel/studio/7.0/toolchain/avr8/avr8-gnu-toolchain/bin/../lib/gcc/avr/5.4.0/avr51\libgcc.a(_negsi2.o)
 .text.libgcc.builtins
                0x00000000        0x0 c:/program files (x86)/atmel/studio/7.0/toolchain/avr8/avr8-gnu-toolchain/bin/../lib/gcc/avr/5.4.0/avr51\libgcc.a(_negsi2.o)
 .text.libgcc.fmul
                0x00000000        0x0 c:/program files (x86)/atmel/studio/7.0/toolchain/avr8/avr8-gnu-toolchain/bin/../lib/gcc/avr/5.4.0/avr51\libgcc.a(_negsi2.o)
 .text.libgcc.fixed
                0x00000000        0x0 c:/program files (x86)/atmel/studio/7.0/toolchain/avr8/avr8-gnu-toolchain/bin/../lib/gcc/avr/5.4.0/avr51\libgcc.a(_negsi2.o)
 .text          0x00000000        0x0 c:/program files (x86)/atmel/studio/7.0/toolchain/avr8/avr8-gnu-toolchain/bin/../lib/gcc/avr/5.4.0/avr51\libgcc.a(_exit.o)
 .data          0x00000000        0x0 c:/program files (x86)/atmel/studio/7.0/toolchain/avr8/avr8-gnu-toolchain/bin/../lib/gcc/avr/5.4.0/avr51\libgcc.a(_exit.o)
 .bss           0x00000000        0x0 c:/program files (x86)/atmel/studio/7.0/toolchain/avr8/avr8-gnu-toolchain/bin/../lib/gcc/avr/5.4.0/avr51\libgcc.a(_exit.o)
 .text.libgcc.mul
                0x00000000        0x0 c:/program files (x86)/atmel/studio/7.0/toolchain/avr8/avr8-gnu-toolchain/bin/../lib/gcc/avr/5.4.0/avr51\libgcc.a(_exit.o)
 .text.libgcc.div
                0x00000000        0x0 c:/program files (x86)/atmel/studio/7.0/toolchain/avr8/avr8-gnu-toolchain/bin/../lib/gcc/avr/5.4.0/avr51\libgcc.a(_exit.o)
 .text.libgcc   0x00000000        0x0 c:/program files (x86)/atmel/studio/7.0/toolchain/avr8/avr8-gnu-toolchain/bin/../lib/gcc/avr/5.4.0/avr51\libgcc.a(_exit.o)
 .text.libgcc.prologue
                0x00000000        0x0 c:/program files (x86)/atmel/studio/7.0/toolchain/avr8/avr8-gnu-toolchain/bin/../lib/gcc/avr/5.4.0/avr51\libgcc.a(_exit.o)
 .text.libgcc.builtins
                0x00000000        0x0 c:/program files (x86)/atmel/studio/7.0/toolchain/avr8/avr8-gnu-toolchain/bin/../lib/gcc/avr/5.4.0/avr51\libgcc.a(_exit.o)
 .text.libgcc.fmul
                0x00000000        0x0 c:/program files (x86)/atmel/studio/7.0/toolchain/avr8/avr8-gnu-toolchain/bin/../lib/gcc/avr/5.4.0/avr51\libgcc.a(_exit.o)
 .text.libgcc.fixed
                0x00000000        0x0 c:/program files (x86)/atmel/studio/7.0/toolchain/avr8/avr8-gnu-toolchain/bin/../lib/gcc/avr/5.4.0/avr51\libgcc.a(_exit.o)
 .text          0x00000000        0x0 c:/program files (x86)/atmel/studio/7.0/toolchain/avr8/avr8-gnu-toolchain/bin/../lib/gcc/avr/5.4.0/avr51\libgcc.a(_tablejump2.o)
 .data          0x00000000        0x0 c:/program files (x86)/atmel/studio/7.0/toolchain/avr8/avr8-gnu-toolchain/bin/../lib/gcc/avr/5.4.0/avr51\libgcc.a(_tablejump2.o)
 .bss           0x00000000        0x0 c:/program files (x86)/atmel/studio/7.0/toolchain/avr8/avr8-gnu-toolchain/bin/../lib/gcc/avr/5.4.0/avr51\libgcc.a(_tablejump2.o)
 .text.libgcc.mul
                0x00000000        0x0 c:/program files (x86)/atmel/studio/7.0/toolchain/avr8/avr8-gnu-toolchain/bin/../lib/gcc/avr/5.4.0/avr51\libgcc.a(_tablejump2.o)
 .text.libgcc.div
                0x00000000        0x0 c:/program files (x86)/atmel/studio/7.0/toolchain/avr8/avr8-gnu-toolchain/bin/../lib/gcc/avr/5.4.0/avr51\libgcc.a(_tablejump2.o)
 .text.libgcc.prologue
                0x00000000        0x0 c:/program files (x86)/atmel/studio/7.0/toolchain/avr8/avr8-gnu-toolchain/bin/../lib/gcc/avr/5.4.0/avr51\libgcc.a(_tablejump2.o)
 .text.libgcc.builtins
                0x00000000        0x0 c:/program files (x86)/atmel/studio/7.0/toolchain/avr8/avr8-gnu-toolchain/bin/../lib/gcc/avr/5.4.0/avr51\libgcc.a(_tablejump2.o)
 .text.libgcc.fmul
                0x00000000        0x0 c:/program files (x86)/atmel/studio/7.0/toolchain/avr8/avr8-gnu-toolchain/bin/../lib/gcc/avr/5.4.0/avr51\libgcc.a(_tablejump2.o)
 .text.libgcc.fixed
                0x00000000        0x0 c:/program files (x86)/atmel/studio/7.0/toolchain/avr8/avr8-gnu-toolchain/bin/../lib/gcc/avr/5.4.0/avr51\libgcc.a(_tablejump2.o)
 .text          0x00000000        0x0 c:/program files (x86)/atmel/studio/7.0/toolchain/avr8/avr8-gnu-toolchain/bin/../lib/gcc/avr/5.4.0/avr51\libgcc.a(_copy_data.o)
 .data          0x00000000        0x0 c:/program files (x86)/atmel/studio/7.0/toolchain/avr8/avr8-gnu-toolchain/bin/../lib/gcc/avr/5.4.0/avr51\libgcc.a(_copy_data.o)
 .bss           0x00000000        0x0 c:/program files (x86)/atmel/studio/7.0/toolchain/avr8/avr8-gnu-toolchain/bin/../lib/gcc/avr/5.4.0/avr51\libgcc.a(_copy_data.o)
 .text.libgcc.mul
                0x00000000        0x0 c:/program files (x86)/atmel/studio/7.0/toolchain/avr8/avr8-gnu-toolchain/bin/../lib/gcc/avr/5.4.0/avr51\libgcc.a(_copy_data.o)
 .text.libgcc.div
                0x00000000        0x0 c:/program files (x86)/atmel/studio/7.0/toolchain/avr8/avr8-gnu-toolchain/bin/../lib/gcc/avr/5.4.0/avr51\libgcc.a(_copy_data.o)
 .text.libgcc   0x00000000        0x0 c:/program files (x86)/atmel/studio/7.0/toolchain/avr8/avr8-gnu-toolchain/bin/../lib/gcc/avr/5.4.0/avr51\libgcc.a(_copy_data.o)
 .text.libgcc.prologue
                0x00000000        0x0 c:/program files (x86)/atmel/studio/7.0/toolchain/avr8/avr8-gnu-toolchain/bin/../lib/gcc/avr/5.4.0/avr51\libgcc.a(_copy_data.o)
 .text.libgcc.builtins
                0x00000000        0x0 c:/program files (x86)/atmel/studio/7.0/toolchain/avr8/avr8-gnu-toolchain/bin/../lib/gcc/avr/5.4.0/avr51\libgcc.a(_copy_data.o)
 .text.libgcc.fmul
                0x00000000        0x0 c:/program files (x86)/atmel/studio/7.0/toolchain/avr8/avr8-gnu-toolchain/bin/../lib/gcc/avr/5.4.0/avr51\libgcc.a(_copy_data.o)
 .text.libgcc.fixed
                0x00000000        0x0 c:/program files (x86)/atmel/studio/7.0/toolchain/avr8/avr8-gnu-toolchain/bin/../lib/gcc/avr/5.4.0/avr51\libgcc.a(_copy_data.o)
 .text          0x00000000        0x0 c:/program files (x86)/atmel/studio/7.0/toolchain/avr8/avr8-gnu-toolchain/bin/../lib/gcc/avr/5.4.0/avr51\libgcc.a(_clear_bss.o)
 .data          0x00000000        0x0 c:/program files (x86)/atmel/studio/7.0/toolchain/avr8/avr8-gnu-toolchain/bin/../lib/gcc/avr/5.4.0/avr51\libgcc.a(_clear_bss.o)
 .bss           0x00000000        0x0 c:/program files (x86)/atmel/studio/7.0/toolchain/avr8/avr8-gnu-toolchain/bin/../lib/gcc/avr/5.4.0/avr51\libgcc.a(_clear_bss.o)
 .text.libgcc.mul
                0x00000000        0x0 c:/program files (x86)/atmel/studio/7.0/toolchain/avr8/avr8-gnu-toolchain/bin/../lib/gcc/avr/5.4.0/avr51\libgcc.a(_clear_bss.o)
 .text.libgcc.div
                0x00000000        0x0 c:/program files (x86)/atmel/studio/7.0/toolchain/avr8/avr8-gnu-toolchain/bin/../lib/gcc/avr/5.4.0/avr51\libgcc.a(_clear_bss.o)
 .text.libgcc   0x00000000        0x0 c:/program files (x86)/atmel/studio/7.0/toolchain/avr8/avr8-gnu-toolchain/bin/../lib/gcc/avr/5.4.0/avr51\libgcc.a(_clear_bss.o)
 .text.libgcc.prologue
                0x00000000        0x0 c:/program files (x86)/atmel/studio/7.0/toolchain/avr8/avr8-gnu-toolchain/bin/../lib/gcc/avr/5.4.0/avr51\libgcc.a(_clear_bss.o)
 .text.libgcc.builtins
                0x00000000        0x0 c:/program files (x86)/atmel/studio/7.0/toolchain/avr8/avr8-gnu-toolchain/bin/../lib/gcc/avr/5.4.0/avr51\libgcc.a(_clear_bss.o)
 .text.libgcc.fmul
                0x00000000        0x0 c:/program files (x86)/atmel/studio/7.0/toolchain/avr8/avr8-gnu-toolchain/bin/../lib/gcc/avr/5.4.0/avr51\libgcc.a(_clear_bss.o)
 .text.libgcc.fixed
                0x00000000        0x0 c:/program files (x86)/atmel/studio/7.0/toolchain/avr8/avr8-gnu-toolchain/bin/../lib/gcc/avr/5.4.0/avr51\libgcc.a(_clear_bss.o)
 .text          0x00000000        0x0 c:/program files (x86)/atmel/studio/7.0/toolchain/avr8/avr8-gnu-toolchain/bin/../lib/gcc/avr/5.4.0/avr51\libgcc.a(_umulhisi3.o)
 .data          0x00000000        0x0 c:/program files (x86)/atmel/studio/7.0/toolchain/avr8/avr8-gnu-toolchain/bin/../lib/gcc/avr/5.4.0/avr51\libgcc.a(_umulhisi3.o)
 .bss           0x00000000        0x0 c:/program files (x86)/atmel/studio/7.0/toolchain/avr8/avr8-gnu-toolchain/bin/../lib/gcc/avr/5.4.0/avr51\libgcc.a(_umulhisi3.o)
 .text.libgcc.div
                0x00000000        0x0 c:/program files (x86)/atmel/studio/7.0/toolchain/avr8/avr8-gnu-toolchain/bin/../lib/gcc/avr/5.4.0/avr51\libgcc.a(_umulhisi3.o)
 .text.libgcc   0x00000000        0x0 c:/program files (x86)/atmel/studio/7.0/toolchain/avr8/avr8-gnu-toolchain/bin/../lib/gcc/avr/5.4.0/avr51\libgcc.a(_umulhisi3.o)
 .text.libgcc.prologue
                0x00000000        0x0 c:/program files (x86)/atmel/studio/7.0/toolchain/avr8/avr8-gnu-toolchain/bin/../lib/gcc/avr/5.4.0/avr51\libgcc.a(_umulhisi3.o)
 .text.libgcc.builtins
                0x00000000        0x0 c:/program files (x86)/atmel/studio/7.0/toolchain/avr8/avr8-gnu-toolchain/bin/../lib/gcc/avr/5.4.0/avr51\libgcc.a(_umulhisi3.o)
 .text.libgcc.fmul
                0x00000000        0x0 c:/program files (x86)/atmel/studio/7.0/toolchain/avr8/avr8-gnu-toolchain/bin/../lib/gcc/avr/5.4.0/avr51\libgcc.a(_umulhisi3.o)
 .text.libgcc.fixed
                0x00000000        0x0 c:/program files (x86)/atmel/studio/7.0/toolchain/avr8/avr8-gnu-toolchain/bin/../lib/gcc/avr/5.4.0/avr51\libgcc.a(_umulhisi3.o)
 .text          0x00000000        0x0 c:/program files (x86)/atmel/studio/7.0/toolchain/avr8/avr8-gnu-toolchain/bin/../lib/gcc/avr/5.4.0/avr51\libgcc.a(_muluhisi3.o)
 .data          0x00000000        0x0 c:/program files (x86)/atmel/studio/7.0/toolchain/avr8/avr8-gnu-toolchain/bin/../lib/gcc/avr/5.4.0/avr51\libgcc.a(_muluhisi3.o)
 .bss           0x00000000        0x0 c:/program files (x86)/atmel/studio/7.0/toolchain/avr8/avr8-gnu-toolchain/bin/../lib/gcc/avr/5.4.0/avr51\libgcc.a(_muluhisi3.o)
 .text.libgcc.div
                0x00000000        0x0 c:/program files (x86)/atmel/studio/7.0/toolchain/avr8/avr8-gnu-toolchain/bin/../lib/gcc/avr/5.4.0/avr51\libgcc.a(_muluhisi3.o)
 .text.libgcc   0x00000000        0x0 c:/program files (x86)/atmel/studio/7.0/toolchain/avr8/avr8-gnu-toolchain/bin/../lib/gcc/avr/5.4.0/avr51\libgcc.a(_muluhisi3.o)
 .text.libgcc.prologue
                0x00000000        0x0 c:/program files (x86)/atmel/studio/7.0/toolchain/avr8/avr8-gnu-toolchain/bin/../lib/gcc/avr/5.4.0/avr51\libgcc.a(_muluhisi3.o)
 .text.libgcc.builtins
                0x00000000        0x0 c:/program files (x86)/atmel/studio/7.0/toolchain/avr8/avr8-gnu-toolchain/bin/../lib/gcc/avr/5.4.0/avr51\libgcc.a(_muluhisi3.o)
 .text.libgcc.fmul
                0x00000000        0x0 c:/program files (x86)/atmel/studio/7.0/toolchain/avr8/avr8-gnu-toolchain/bin/../lib/gcc/avr/5.4.0/avr51\libgcc.a(_muluhisi3.o)
 .text.libgcc.fixed
                0x00000000        0x0 c:/program files (x86)/atmel/studio/7.0/toolchain/avr8/avr8-gnu-toolchain/bin/../lib/gcc/avr/5.4.0/avr51\libgcc.a(_muluhisi3.o)
 .text          0x00000000        0x0 c:/program files (x86)/atmel/studio/7.0/toolchain/avr8/avr8-gnu-toolchain/bin/../lib/gcc/avr/5.4.0/avr51\libgcc.a(_udivmodhi4.o)
 .data          0x00000000        0x0 c:/program files (x86)/atmel/studio/7.0/toolchain/avr8/avr8-gnu-toolchain/bin/../lib/gcc/avr/5.4.0/avr51\libgcc.a(_udivmodhi4.o)
 .bss           0x00000000        0x0 c:/program files (x86)/atmel/studio/7.0/toolchain/avr8/avr8-gnu-toolchain/bin/../lib/gcc/avr/5.4.0/avr51\libgcc.a(_udivmodhi4.o)
 .text.libgcc.mul
                0x00000000        0x0 c:/program files (x86)/atmel/studio/7.0/toolchain/avr8/avr8-gnu-toolchain/bin/../lib/gcc/avr/5.4.0/avr51\libgcc.a(_udivmodhi4.o)
 .text.libgcc   0x00000000        0x0 c:/program files (x86)/atmel/studio/7.0/toolchain/avr8/avr8-gnu-toolchain/bin/../lib/gcc/avr/5.4.0/avr51\libgcc.a(_udivmodhi4.o)
 .text.libgcc.prologue
                0x00000000        0x0 c:/program files (x86)/atmel/studio/7.0/toolchain/avr8/avr8-gnu-toolchain/bin/../lib/gcc/avr/5.4.0/avr51\libgcc.a(_udivmodhi4.o)
 .text.libgcc.builtins
                0x00000000        0x0 c:/program files (x86)/atmel/studio/7.0/toolchain/avr8/avr8-gnu-toolchain/bin/../lib/gcc/avr/5.4.0/avr51\libgcc.a(_udivmodhi4.o)
 .text.libgcc.fmul
                0x00000000        0x0 c:/program files (x86)/atmel/studio/7.0/toolchain/avr8/avr8-gnu-toolchain/bin/../lib/gcc/avr/5.4.0/avr51\libgcc.a(_udivmodhi4.o)
 .text.libgcc.fixed
                0x00000000        0x0 c:/program files (x86)/atmel/studio/7.0/toolchain/avr8/avr8-gnu-toolchain/bin/../lib/gcc/avr/5.4.0/avr51\libgcc.a(_udivmodhi4.o)
 .text          0x00000000        0x0 C:/Program Files (x86)/Microchip/MPLABX/v5.40/packs/Microchip/ATmega_DFP/2.2.108/gcc/dev/atmega128/avr51\libatmega128.a(eerd_block.o)
 .data          0x00000000        0x0 C:/Program Files (x86)/Microchip/MPLABX/v5.40/packs/Microchip/ATmega_DFP/2.2.108/gcc/dev/atmega128/avr51\libatmega128.a(eerd_block.o)
 .bss           0x00000000        0x0 C:/Program Files (x86)/Microchip/MPLABX/v5.40/packs/Microchip/ATmega_DFP/2.2.108/gcc/dev/atmega128/avr51\libatmega128.a(eerd_block.o)
 .text          0x00000000        0x0 C:/Program Files (x86)/Microchip/MPLABX/v5.40/packs/Microchip/ATmega_DFP/2.2.108/gcc/dev/atmega128/avr51\libatmega128.a(eerd_byte.o)
 .data          0x00000000        0x0 C:/Program Files (x86)/Microchip/MPLABX/v5.40/packs/Microchip/ATmega_DFP/2.2.108/gcc/dev/atmega128/avr51\libatmega128.a(eerd_byte.o)
 .bss           0x00000000        0x0 C:/Program Files (x86)/Microchip/MPLABX/v5.40/packs/Microchip/ATmega_DFP/2.2.108/gcc/dev/atmega128/avr51\libatmega128.a(eerd_byte.o)
 .text          0x00000000        0x0 C:/Program Files (x86)/Microchip/MPLABX/v5.40/packs/Microchip/ATmega_DFP/2.2.108/gcc/dev/atmega128/avr51\libatmega128.a(eerd_word.o)
 .data          0x00000000        0x0 C:/Program Files (x86)/Microchip/MPLABX/v5.40/packs/Microchip/ATmega_DFP/2.2.108/gcc/dev/atmega128/avr51\libatmega128.a(eerd_word.o)
 .bss           0x00000000        0x0 C:/Program Files (x86)/Microchip/MPLABX/v5.40/packs/Microchip/ATmega_DFP/2.2.108/gcc/dev/atmega128/avr51\libatmega128.a(eerd_word.o)
 .text          0x00000000        0x0 C:/Program Files (x86)/Microchip/MPLABX/v5.40/packs/Microchip/ATmega_DFP/2.2.108/gcc/dev/atmega128/avr51\libatmega128.a(eeupd_block.o)
 .data          0x00000000        0x0 C:/Program Files (x86)/Microchip/MPLABX/v5.40/packs/Microchip/ATmega_DFP/2.2.108/gcc/dev/atmega128/avr51\libatmega128.a(eeupd_block.o)
 .bss           0x00000000        0x0 C:/Program Files (x86)/Microchip/MPLABX/v5.40/packs/Microchip/ATmega_DFP/2.2.108/gcc/dev/atmega128/avr51\libatmega128.a(eeupd_block.o)
 .text          0x00000000        0x0 C:/Program Files (x86)/Microchip/MPLABX/v5.40/packs/Microchip/ATmega_DFP/2.2.108/gcc/dev/atmega128/avr51\libatmega128.a(eeupd_byte.o)
 .data          0x00000000        0x0 C:/Program Files (x86)/Microchip/MPLABX/v5.40/packs/Microchip/ATmega_DFP/2.2.108/gcc/dev/atmega128/avr51\libatmega128.a(eeupd_byte.o)
 .bss           0x00000000        0x0 C:/Program Files (x86)/Microchip/MPLABX/v5.40/packs/Microchip/ATmega_DFP/2.2.108/gcc/dev/atmega128/avr51\libatmega128.a(eeupd_byte.o)
 .text          0x00000000        0x0 C:/Program Files (x86)/Microchip/MPLABX/v5.40/packs/Microchip/ATmega_DFP/2.2.108/gcc/dev/atmega128/avr51\libatmega128.a(eeupd_dword.o)
 .data          0x00000000        0x0 C:/Program Files (x86)/Microchip/MPLABX/v5.40/packs/Microchip/ATmega_DFP/2.2.108/gcc/dev/atmega128/avr51\libatmega128.a(eeupd_dword.o)
 .bss           0x00000000        0x0 C:/Program Files (x86)/Microchip/MPLABX/v5.40/packs/Microchip/ATmega_DFP/2.2.108/gcc/dev/atmega128/avr51\libatmega128.a(eeupd_dword.o)
 .text          0x00000000        0x0 C:/Program Files (x86)/Microchip/MPLABX/v5.40/packs/Microchip/ATmega_DFP/2.2.108/gcc/dev/atmega128/avr51\libatmega128.a(eeupd_word.o)
 .data          0x00000000        0x0 C:/Program Files (x86)/Microchip/MPLABX/v5.40/packs/Microchip/ATmega_DFP/2.2.108/gcc/dev/atmega128/avr51\libatmega128.a(eeupd_word.o)
 .bss           0x00000000        0x0 C:/Program Files (x86)/Microchip/MPLABX/v5.40/packs/Microchip/ATmega_DFP/2.2.108/gcc/dev/atmega128/avr51\libatmega128.a(eeupd_word.o)
 .text          0x00000000        0x0 C:/Program Files (x86)/Microchip/MPLABX/v5.40/packs/Microchip/ATmega_DFP/2.2.108/gcc/dev/atmega128/avr51\libatmega128.a(eewr_block.o)
 .data          0x00000000        0x0 C:/Program Files (x86)/Microchip/MPLABX/v5.40/packs/Microchip/ATmega_DFP/2.2.108/gcc/dev/atmega128/avr51\libatmega128.a(eewr_block.o)
 .bss           0x00000000        0x0 C:/Program Files (x86)/Microchip/MPLABX/v5.40/packs/Microchip/ATmega_DFP/2.2.108/gcc/dev/atmega128/avr51\libatmega128.a(eewr_block.o)
 .text          0x00000000        0x0 C:/Program Files (x86)/Microchip/MPLABX/v5.40/packs/Microchip/ATmega_DFP/2.2.108/gcc/dev/atmega128/avr51\libatmega128.a(eewr_byte.o)
 .data          0x00000000        0x0 C:/Program Files (x86)/Microchip/MPLABX/v5.40/packs/Microchip/ATmega_DFP/2.2.108/gcc/dev/atmega128/avr51\libatmega128.a(eewr_byte.o)
 .bss           0x00000000        0x0 C:/Program Files (x86)/Microchip/MPLABX/v5.40/packs/Microchip/ATmega_DFP/2.2.108/gcc/dev/atmega128/avr51\libatmega128.a(eewr_byte.o)
 .text          0x00000000        0x0 C:/Program Files (x86)/Microchip/MPLABX/v5.40/packs/Microchip/ATmega_DFP/2.2.108/gcc/dev/atmega128/avr51\libatmega128.a(eewr_dword.o)
 .data          0x00000000        0x0 C:/Program Files (x86)/Microchip/MPLABX/v5.40/packs/Microchip/ATmega_DFP/2.2.108/gcc/dev/atmega128/avr51\libatmega128.a(eewr_dword.o)
 .bss           0x00000000        0x0 C:/Program Files (x86)/Microchip/MPLABX/v5.40/packs/Microchip/ATmega_DFP/2.2.108/gcc/dev/atmega128/avr51\libatmega128.a(eewr_dword.o)
 .text          0x00000000        0x0 C:/Program Files (x86)/Microchip/MPLABX/v5.40/packs/Microchip/ATmega_DFP/2.2.108/gcc/dev/atmega128/avr51\libatmega128.a(eewr_word.o)
 .data          0x00000000        0x0 C:/Program Files (x86)/Microchip/MPLABX/v5.40/packs/Microchip/ATmega_DFP/2.2.108/gcc/dev/atmega128/avr51\libatmega128.a(eewr_word.o)
 .bss           0x00000000        0x0 C:/Program Files (x86)/Microchip/MPLABX/v5.40/packs/Microchip/ATmega_DFP/2.2.108/gcc/dev/atmega128/avr51\libatmega128.a(eewr_word.o)

Memory Configuration

Name             Origin             Length             Attributes
text             0x00000000         0x00020000         xr
data             0x00800100         0x00001000         rw !x
eeprom           0x00810000         0x00001000         rw !x
fuse             0x00820000         0x00000003         rw !x
lock             0x00830000         0x00000400         rw !x
signature        0x00840000         0x00000400         rw !x
user_signatures  0x00850000         0x00000400         rw !x
*default*        0x00000000         0xffffffff

Linker script and memory map

Address of section .data set to 0x800100
LOAD C:/Program Files (x86)/Microchip/MPLABX/v5.40/packs/Microchip/ATmega_DFP/2.2.108/gcc/dev/atmega128/avr51/crtatmega128.o
LOAD build/default/production/Librarias/ATMEGA128API/Atmega128API.o
LOAD build/default/production/Librarias/FUNCTION/function.o
LOAD build/default/production/Librarias/KEYPAD/keypad.o
LOAD build/default/production/Librarias/LCD/lcd.o
LOAD build/default/production/Librarias/LFSM/lfsm.o
LOAD build/default/production/Librarias/EEPROM/eeprom.o
LOAD build/default/production/main.o
                0x00000001                __MPLAB_BUILD = 0x1
START GROUP
LOAD c:/program files (x86)/atmel/studio/7.0/toolchain/avr8/avr8-gnu-toolchain/bin/../lib/gcc/avr/5.4.0/../../../../avr/lib/avr51\libm.a
END GROUP
START GROUP
LOAD c:/program files (x86)/atmel/studio/7.0/toolchain/avr8/avr8-gnu-toolchain/bin/../lib/gcc/avr/5.4.0/avr51\libgcc.a
LOAD c:/program files (x86)/atmel/studio/7.0/toolchain/avr8/avr8-gnu-toolchain/bin/../lib/gcc/avr/5.4.0/../../../../avr/lib/avr51\libm.a
LOAD c:/program files (x86)/atmel/studio/7.0/toolchain/avr8/avr8-gnu-toolchain/bin/../lib/gcc/avr/5.4.0/../../../../avr/lib/avr51\libc.a
LOAD C:/Program Files (x86)/Microchip/MPLABX/v5.40/packs/Microchip/ATmega_DFP/2.2.108/gcc/dev/atmega128/avr51\libatmega128.a
END GROUP
                0x00000000                __TEXT_REGION_ORIGIN__ = DEFINED (__TEXT_REGION_ORIGIN__)?__TEXT_REGION_ORIGIN__:0x0
                [0x00800100]                __DATA_REGION_ORIGIN__ = DEFINED (__DATA_REGION_ORIGIN__)?__DATA_REGION_ORIGIN__:0x800100
                [0x00020000]                __TEXT_REGION_LENGTH__ = DEFINED (__TEXT_REGION_LENGTH__)?__TEXT_REGION_LENGTH__:0x20000
                [0x00001000]                __DATA_REGION_LENGTH__ = DEFINED (__DATA_REGION_LENGTH__)?__DATA_REGION_LENGTH__:0xff00
                [0x00001000]                __EEPROM_REGION_LENGTH__ = DEFINED (__EEPROM_REGION_LENGTH__)?__EEPROM_REGION_LENGTH__:0x10000
                [0x00000003]                __FUSE_REGION_LENGTH__ = DEFINED (__FUSE_REGION_LENGTH__)?__FUSE_REGION_LENGTH__:0x400
                0x00000400                __LOCK_REGION_LENGTH__ = DEFINED (__LOCK_REGION_LENGTH__)?__LOCK_REGION_LENGTH__:0x400
                0x00000400                __SIGNATURE_REGION_LENGTH__ = DEFINED (__SIGNATURE_REGION_LENGTH__)?__SIGNATURE_REGION_LENGTH__:0x400
                0x00000400                __USER_SIGNATURE_REGION_LENGTH__ = DEFINED (__USER_SIGNATURE_REGION_LENGTH__)?__USER_SIGNATURE_REGION_LENGTH__:0x400

.hash
 *(.hash)

.dynsym
 *(.dynsym)

.dynstr
 *(.dynstr)

.gnu.version
 *(.gnu.version)

.gnu.version_d
 *(.gnu.version_d)

.gnu.version_r
 *(.gnu.version_r)

.rel.init
 *(.rel.init)

.rela.init
 *(.rela.init)

.rel.text
 *(.rel.text)
 *(.rel.text.*)
 *(.rel.gnu.linkonce.t*)

.rela.text
 *(.rela.text)
 *(.rela.text.*)
 *(.rela.gnu.linkonce.t*)

.rel.fini
 *(.rel.fini)

.rela.fini
 *(.rela.fini)

.rel.rodata
 *(.rel.rodata)
 *(.rel.rodata.*)
 *(.rel.gnu.linkonce.r*)

.rela.rodata
 *(.rela.rodata)
 *(.rela.rodata.*)
 *(.rela.gnu.linkonce.r*)

.rel.data
 *(.rel.data)
 *(.rel.data.*)
 *(.rel.gnu.linkonce.d*)

.rela.data
 *(.rela.data)
 *(.rela.data.*)
 *(.rela.gnu.linkonce.d*)

.rel.ctors
 *(.rel.ctors)

.rela.ctors
 *(.rela.ctors)

.rel.dtors
 *(.rel.dtors)

.rela.dtors
 *(.rela.dtors)

.rel.got
 *(.rel.got)

.rela.got
 *(.rela.got)

.rel.bss
 *(.rel.bss)

.rela.bss
 *(.rela.bss)

.rel.plt
 *(.rel.plt)

.rela.plt
 *(.rela.plt)

.text           0x00000000     0x2898
 *(.vectors)
 .vectors       0x00000000       0x8c C:/Program Files (x86)/Microchip/MPLABX/v5.40/packs/Microchip/ATmega_DFP/2.2.108/gcc/dev/atmega128/avr51/crtatmega128.o
                0x00000000                __vector_default
                0x00000000                __vectors
 *(.vectors)
 *(.progmem.gcc*)
 .progmem.gcc_sw_table.main
                0x0000008c       0x6a build/default/production/main.o
                0x000000f6                . = ALIGN (0x2)
                0x000000f6                __trampolines_start = .
 *(.trampolines)
 .trampolines   0x000000f6        0x0 linker stubs
 *(.trampolines*)
                0x000000f6                __trampolines_end = .
 *libprintf_flt.a:*(.progmem.data)
 *libc.a:*(.progmem.data)
 *(.progmem*)
                0x000000f6                . = ALIGN (0x2)
 *(.jumptables)
 *(.jumptables*)
 *(.lowtext)
 *(.lowtext*)
                0x000000f6                __ctors_start = .
 *(.ctors)
                0x000000f6                __ctors_end = .
                0x000000f6                __dtors_start = .
 *(.dtors)
                0x000000f6                __dtors_end = .
 SORT(*)(.ctors)
 SORT(*)(.dtors)
 *(.init0)
 .init0         0x000000f6        0x0 C:/Program Files (x86)/Microchip/MPLABX/v5.40/packs/Microchip/ATmega_DFP/2.2.108/gcc/dev/atmega128/avr51/crtatmega128.o
                0x000000f6                __init
 *(.init0)
 *(.init1)
 *(.init1)
 *(.init2)
 .init2         0x000000f6        0xc C:/Program Files (x86)/Microchip/MPLABX/v5.40/packs/Microchip/ATmega_DFP/2.2.108/gcc/dev/atmega128/avr51/crtatmega128.o
 *(.init2)
 *(.init3)
 *(.init3)
 *(.init4)
 .init4         0x00000102       0x1a c:/program files (x86)/atmel/studio/7.0/toolchain/avr8/avr8-gnu-toolchain/bin/../lib/gcc/avr/5.4.0/avr51\libgcc.a(_copy_data.o)
                0x00000102                __do_copy_data
 .init4         0x0000011c       0x10 c:/program files (x86)/atmel/studio/7.0/toolchain/avr8/avr8-gnu-toolchain/bin/../lib/gcc/avr/5.4.0/avr51\libgcc.a(_clear_bss.o)
                0x0000011c                __do_clear_bss
 *(.init4)
 *(.init5)
 *(.init5)
 *(.init6)
 *(.init6)
 *(.init7)
 *(.init7)
 *(.init8)
 *(.init8)
 *(.init9)
 .init9         0x0000012c        0x8 C:/Program Files (x86)/Microchip/MPLABX/v5.40/packs/Microchip/ATmega_DFP/2.2.108/gcc/dev/atmega128/avr51/crtatmega128.o
 *(.init9)
 *(.text)
 .text          0x00000134        0x4 C:/Program Files (x86)/Microchip/MPLABX/v5.40/packs/Microchip/ATmega_DFP/2.2.108/gcc/dev/atmega128/avr51/crtatmega128.o
                0x00000134                __vector_22
                0x00000134                __vector_28
                0x00000134                __vector_1
                0x00000134                __vector_32
                0x00000134                __vector_34
                0x00000134                __vector_24
                0x00000134                __vector_12
                0x00000134                __bad_interrupt
                0x00000134                __vector_6
                0x00000134                __vector_3
                0x00000134                __vector_23
                0x00000134                __vector_25
                0x00000134                __vector_11
                0x00000134                __vector_13
                0x00000134                __vector_17
                0x00000134                __vector_7
                0x00000134                __vector_27
                0x00000134                __vector_5
                0x00000134                __vector_33
                0x00000134                __vector_4
                0x00000134                __vector_9
                0x00000134                __vector_2
                0x00000134                __vector_15
                0x00000134                __vector_29
                0x00000134                __vector_8
                0x00000134                __vector_26
                0x00000134                __vector_14
                0x00000134                __vector_10
                0x00000134                __vector_16
                0x00000134                __vector_20
                0x00000138                . = ALIGN (0x2)
 *(.text.*)
 .text.__vector_21
                0x00000138      0x10a build/default/production/Librarias/ATMEGA128API/Atmega128API.o
                0x00000138                __vector_21
 .text.__vector_18
                0x00000242       0x70 build/default/production/Librarias/ATMEGA128API/Atmega128API.o
                0x00000242                __vector_18
 .text.__vector_19
                0x000002b2       0x52 build/default/production/Librarias/ATMEGA128API/Atmega128API.o
                0x000002b2                __vector_19
 .text.__vector_30
                0x00000304       0x76 build/default/production/Librarias/ATMEGA128API/Atmega128API.o
                0x00000304                __vector_30
 .text.__vector_31
                0x0000037a       0x60 build/default/production/Librarias/ATMEGA128API/Atmega128API.o
                0x0000037a                __vector_31
 .text.FUNCpinmatch
                0x000003da       0x14 build/default/production/Librarias/FUNCTION/function.o
                0x000003da                FUNCpinmatch
 .text.FUNChmerge
                0x000003ee        0x4 build/default/production/Librarias/FUNCTION/function.o
                0x000003ee                FUNChmerge
 .text.FUNClmerge
                0x000003f2        0x4 build/default/production/Librarias/FUNCTION/function.o
                0x000003f2                FUNClmerge
 .text.FUNChh   0x000003f6        0x4 build/default/production/Librarias/FUNCTION/function.o
                0x000003f6                FUNChh
 .text.FUNCll   0x000003fa        0x6 build/default/production/Librarias/FUNCTION/function.o
                0x000003fa                FUNCll
 .text.FUNClh   0x00000400        0x6 build/default/production/Librarias/FUNCTION/function.o
                0x00000400                FUNClh
 .text.FUNChl   0x00000406        0x6 build/default/production/Librarias/FUNCTION/function.o
                0x00000406                FUNChl
 .text.FUNCdiff
                0x0000040c        0x4 build/default/production/Librarias/FUNCTION/function.o
                0x0000040c                FUNCdiff
 .text.FUNCswap
                0x00000410       0x42 build/default/production/Librarias/FUNCTION/function.o
                0x00000410                FUNCswap
 .text.FUNCcopy
                0x00000452       0x1c build/default/production/Librarias/FUNCTION/function.o
                0x00000452                FUNCcopy
 .text.FUNCsqueeze
                0x0000046e       0x44 build/default/production/Librarias/FUNCTION/function.o
                0x0000046e                FUNCsqueeze
 .text.FUNCshellsort
                0x000004b2      0x14c build/default/production/Librarias/FUNCTION/function.o
                0x000004b2                FUNCshellsort
 .text.FUNCpmax
                0x000005fe        0xa build/default/production/Librarias/FUNCTION/function.o
                0x000005fe                FUNCpmax
 .text.FUNCgcd  0x00000608       0x1e build/default/production/Librarias/FUNCTION/function.o
                0x00000608                FUNCgcd
 .text.FUNCstrToInt
                0x00000626       0x48 build/default/production/Librarias/FUNCTION/function.o
                0x00000626                FUNCstrToInt
 .text.FUNCfilter
                0x0000066e        0x4 build/default/production/Librarias/FUNCTION/function.o
                0x0000066e                FUNCfilter
 .text.FUNCticks
                0x00000672       0x14 build/default/production/Librarias/FUNCTION/function.o
                0x00000672                FUNCticks
 .text.FUNCtwocomptoint8bit
                0x00000686       0x1a build/default/production/Librarias/FUNCTION/function.o
                0x00000686                FUNCtwocomptoint8bit
 .text.FUNCtwocomptoint10bit
                0x000006a0       0x18 build/default/production/Librarias/FUNCTION/function.o
                0x000006a0                FUNCtwocomptoint10bit
 .text.FUNCtwocomptointnbit
                0x000006b8       0x30 build/default/production/Librarias/FUNCTION/function.o
                0x000006b8                FUNCtwocomptointnbit
 .text.FUNCdec2bcd
                0x000006e8       0x26 build/default/production/Librarias/FUNCTION/function.o
                0x000006e8                FUNCdec2bcd
 .text.FUNCbcd2dec
                0x0000070e       0x16 build/default/production/Librarias/FUNCTION/function.o
                0x0000070e                FUNCbcd2dec
 .text.FUNCresizestr
                0x00000724       0x5a build/default/production/Librarias/FUNCTION/function.o
                0x00000724                FUNCresizestr
 .text.FUNCtrimmer
                0x0000077e       0x82 build/default/production/Librarias/FUNCTION/function.o
                0x0000077e                FUNCtrimmer
 .text.Pwr      0x00000800       0x36 build/default/production/Librarias/FUNCTION/function.o
                0x00000800                Pwr
 .text.StringLength
                0x00000836       0x1e build/default/production/Librarias/FUNCTION/function.o
                0x00000836                StringLength
 .text.FUNCtrim
                0x00000854       0x38 build/default/production/Librarias/FUNCTION/function.o
                0x00000854                FUNCtrim
 .text.Reverse  0x0000088c       0x3c build/default/production/Librarias/FUNCTION/function.o
                0x0000088c                Reverse
 .text.FUNCi32toa
                0x000008c8       0xb8 build/default/production/Librarias/FUNCTION/function.o
                0x000008c8                FUNCi32toa
 .text.FUNCi16toa
                0x00000980       0x74 build/default/production/Librarias/FUNCTION/function.o
                0x00000980                FUNCi16toa
 .text.FUNCui16toa
                0x000009f4       0x7e build/default/production/Librarias/FUNCTION/function.o
                0x000009f4                FUNCui16toa
 .text.FUNCbcd2bin
                0x00000a72       0x16 build/default/production/Librarias/FUNCTION/function.o
                0x00000a72                FUNCbcd2bin
 .text.FUNCbin2bcd
                0x00000a88       0x42 build/default/production/Librarias/FUNCTION/function.o
                0x00000a88                FUNCbin2bcd
 .text.FUNCgcd1
                0x00000aca       0xa2 build/default/production/Librarias/FUNCTION/function.o
                0x00000aca                FUNCgcd1
 .text.FUNCpincheck
                0x00000b6c       0x10 build/default/production/Librarias/FUNCTION/function.o
                0x00000b6c                FUNCpincheck
 .text.FUNCprint_binary
                0x00000b7c       0x2c build/default/production/Librarias/FUNCTION/function.o
                0x00000b7c                FUNCprint_binary
 .text.FUNCmayia
                0x00000ba8       0x46 build/default/production/Librarias/FUNCTION/function.o
                0x00000ba8                FUNCmayia
 .text.FUNCenable
                0x00000bee      0x14e build/default/production/Librarias/FUNCTION/function.o
                0x00000bee                FUNCenable
 .text.KEYPAD_flush
                0x00000d3c       0x1c build/default/production/Librarias/KEYPAD/keypad.o
                0x00000d3c                KEYPAD_flush
 .text.KEYPAD_getkey
                0x00000d58      0x25a build/default/production/Librarias/KEYPAD/keypad.o
                0x00000d58                KEYPAD_getkey
 .text.KEYPAD_get
                0x00000fb2       0x48 build/default/production/Librarias/KEYPAD/keypad.o
                0x00000fb2                KEYPAD_get
 .text.KEYPADenable
                0x00000ffa       0xb0 build/default/production/Librarias/KEYPAD/keypad.o
                0x00000ffa                KEYPADenable
 .text.LCD0_write
                0x000010aa      0x188 build/default/production/Librarias/LCD/lcd.o
                0x000010aa                LCD0_write
 .text.LCD0_read
                0x00001232       0xf6 build/default/production/Librarias/LCD/lcd.o
                0x00001232                LCD0_read
 .text.LCD0_BF  0x00001328       0x28 build/default/production/Librarias/LCD/lcd.o
                0x00001328                LCD0_BF
 .text.LCD0_putch
                0x00001350        0xe build/default/production/Librarias/LCD/lcd.o
                0x00001350                LCD0_putch
 .text.LCD0_getch
                0x0000135e       0x16 build/default/production/Librarias/LCD/lcd.o
                0x0000135e                LCD0_getch
 .text.LCD0_string
                0x00001374       0x26 build/default/production/Librarias/LCD/lcd.o
                0x00001374                LCD0_string
 .text.LCD0_string_size
                0x0000139a       0x66 build/default/production/Librarias/LCD/lcd.o
                0x0000139a                LCD0_string_size
 .text.LCD0_hspace
                0x00001400       0x1e build/default/production/Librarias/LCD/lcd.o
                0x00001400                LCD0_hspace
 .text.LCD0_gotoxy
                0x0000141e       0x5e build/default/production/Librarias/LCD/lcd.o
                0x0000141e                LCD0_gotoxy
 .text.LCD0_clear
                0x0000147c       0x18 build/default/production/Librarias/LCD/lcd.o
                0x0000147c                LCD0_clear
 .text.LCD0_inic
                0x00001494       0x98 build/default/production/Librarias/LCD/lcd.o
                0x00001494                LCD0_inic
 .text.LCD0enable
                0x0000152c       0xb0 build/default/production/Librarias/LCD/lcd.o
                0x0000152c                LCD0enable
 .text.LCD0_reboot
                0x000015dc       0x24 build/default/production/Librarias/LCD/lcd.o
                0x000015dc                LCD0_reboot
 .text.LFSMquant
                0x00001600       0x8c build/default/production/Librarias/LFSM/lfsm.o
                0x00001600                LFSMquant
 .text.LFSMdeleteall
                0x0000168c       0xb0 build/default/production/Librarias/LFSM/lfsm.o
                0x0000168c                LFSMdeleteall
 .text.LFSMgetoutput
                0x0000173c        0x6 build/default/production/Librarias/LFSM/lfsm.o
                0x0000173c                LFSMgetoutput
 .text.LFSMgetstatus
                0x00001742        0x6 build/default/production/Librarias/LFSM/lfsm.o
                0x00001742                LFSMgetstatus
 .text.LFSMsetoutput
                0x00001748        0x8 build/default/production/Librarias/LFSM/lfsm.o
                0x00001748                LFSMsetoutput
 .text.LFSMgetpage
                0x00001750        0x6 build/default/production/Librarias/LFSM/lfsm.o
                0x00001750                LFSMgetpage
 .text.LFSMsetpage
                0x00001756        0x6 build/default/production/Librarias/LFSM/lfsm.o
                0x00001756                LFSMsetpage
 .text.LFSMread
                0x0000175c      0x298 build/default/production/Librarias/LFSM/lfsm.o
                0x0000175c                LFSMread
 .text.LFSMremove
                0x000019f4      0x286 build/default/production/Librarias/LFSM/lfsm.o
                0x000019f4                LFSMremove
 .text.LFSMlearn
                0x00001c7a      0x196 build/default/production/Librarias/LFSM/lfsm.o
                0x00001c7a                LFSMlearn
 .text.LFSMenable
                0x00001e10       0x66 build/default/production/Librarias/LFSM/lfsm.o
                0x00001e10                LFSMenable
 .text.EEPROMenable
                0x00001e76       0x66 build/default/production/Librarias/EEPROM/eeprom.o
                0x00001e76                EEPROMenable
 .text.PORTINIT
                0x00001edc        0xc build/default/production/main.o
                0x00001edc                PORTINIT
 .text.main     0x00001ee8      0x78a build/default/production/main.o
                0x00001ee8                main
 .text.libgcc.mul
                0x00002672       0x20 c:/program files (x86)/atmel/studio/7.0/toolchain/avr8/avr8-gnu-toolchain/bin/../lib/gcc/avr/5.4.0/avr51\libgcc.a(_mulsi3.o)
                0x00002672                __mulsi3
 .text.libgcc.div
                0x00002692       0x28 c:/program files (x86)/atmel/studio/7.0/toolchain/avr8/avr8-gnu-toolchain/bin/../lib/gcc/avr/5.4.0/avr51\libgcc.a(_divmodhi4.o)
                0x00002692                _div
                0x00002692                __divmodhi4
 .text.libgcc.div
                0x000026ba       0x44 c:/program files (x86)/atmel/studio/7.0/toolchain/avr8/avr8-gnu-toolchain/bin/../lib/gcc/avr/5.4.0/avr51\libgcc.a(_udivmodsi4.o)
                0x000026ba                __udivmodsi4
 .text.libgcc.div
                0x000026fe       0x2e c:/program files (x86)/atmel/studio/7.0/toolchain/avr8/avr8-gnu-toolchain/bin/../lib/gcc/avr/5.4.0/avr51\libgcc.a(_divmodsi4.o)
                0x000026fe                __divmodsi4
 .text.libgcc.div
                0x0000272c       0x10 c:/program files (x86)/atmel/studio/7.0/toolchain/avr8/avr8-gnu-toolchain/bin/../lib/gcc/avr/5.4.0/avr51\libgcc.a(_negsi2.o)
                0x0000272c                __negsi2
 .text.libgcc   0x0000273c       0x12 c:/program files (x86)/atmel/studio/7.0/toolchain/avr8/avr8-gnu-toolchain/bin/../lib/gcc/avr/5.4.0/avr51\libgcc.a(_tablejump2.o)
                0x0000273c                __tablejump2__
 .text.libgcc.mul
                0x0000274e       0x1e c:/program files (x86)/atmel/studio/7.0/toolchain/avr8/avr8-gnu-toolchain/bin/../lib/gcc/avr/5.4.0/avr51\libgcc.a(_umulhisi3.o)
                0x0000274e                __umulhisi3
 .text.libgcc.mul
                0x0000276c       0x16 c:/program files (x86)/atmel/studio/7.0/toolchain/avr8/avr8-gnu-toolchain/bin/../lib/gcc/avr/5.4.0/avr51\libgcc.a(_muluhisi3.o)
                0x0000276c                __muluhisi3
 .text.libgcc.div
                0x00002782       0x28 c:/program files (x86)/atmel/studio/7.0/toolchain/avr8/avr8-gnu-toolchain/bin/../lib/gcc/avr/5.4.0/avr51\libgcc.a(_udivmodhi4.o)
                0x00002782                __udivmodhi4
 .text.avr-libc
                0x000027aa       0x20 C:/Program Files (x86)/Microchip/MPLABX/v5.40/packs/Microchip/ATmega_DFP/2.2.108/gcc/dev/atmega128/avr51\libatmega128.a(eerd_block.o)
                0x000027aa                eeprom_read_block
                0x000027ae                eeprom_read_blraw
 .text.avr-libc
                0x000027ca       0x10 C:/Program Files (x86)/Microchip/MPLABX/v5.40/packs/Microchip/ATmega_DFP/2.2.108/gcc/dev/atmega128/avr51\libatmega128.a(eerd_byte.o)
                0x000027ca                eeprom_read_byte
 .text.avr-libc
                0x000027da        0xc C:/Program Files (x86)/Microchip/MPLABX/v5.40/packs/Microchip/ATmega_DFP/2.2.108/gcc/dev/atmega128/avr51\libatmega128.a(eerd_word.o)
                0x000027da                eeprom_read_word
 .text.avr-libc
                0x000027e6       0x20 C:/Program Files (x86)/Microchip/MPLABX/v5.40/packs/Microchip/ATmega_DFP/2.2.108/gcc/dev/atmega128/avr51\libatmega128.a(eeupd_block.o)
                0x000027e6                eeprom_update_block
 .text.avr-libc
                0x00002806       0x22 C:/Program Files (x86)/Microchip/MPLABX/v5.40/packs/Microchip/ATmega_DFP/2.2.108/gcc/dev/atmega128/avr51\libatmega128.a(eeupd_byte.o)
                0x00002806                eeprom_update_byte
                0x00002808                eeprom_update_r18
 .text.avr-libc
                0x00002828       0x18 C:/Program Files (x86)/Microchip/MPLABX/v5.40/packs/Microchip/ATmega_DFP/2.2.108/gcc/dev/atmega128/avr51\libatmega128.a(eeupd_dword.o)
                0x00002828                eeprom_update_float
                0x00002828                eeprom_update_dword
 .text.avr-libc
                0x00002840        0xc C:/Program Files (x86)/Microchip/MPLABX/v5.40/packs/Microchip/ATmega_DFP/2.2.108/gcc/dev/atmega128/avr51\libatmega128.a(eeupd_word.o)
                0x00002840                eeprom_update_word
 .text.avr-libc
                0x0000284c       0x14 C:/Program Files (x86)/Microchip/MPLABX/v5.40/packs/Microchip/ATmega_DFP/2.2.108/gcc/dev/atmega128/avr51\libatmega128.a(eewr_block.o)
                0x0000284c                eeprom_write_block
 .text.avr-libc
                0x00002860       0x1a C:/Program Files (x86)/Microchip/MPLABX/v5.40/packs/Microchip/ATmega_DFP/2.2.108/gcc/dev/atmega128/avr51\libatmega128.a(eewr_byte.o)
                0x00002860                eeprom_write_byte
                0x00002862                eeprom_write_r18
 .text.avr-libc
                0x0000287a       0x10 C:/Program Files (x86)/Microchip/MPLABX/v5.40/packs/Microchip/ATmega_DFP/2.2.108/gcc/dev/atmega128/avr51\libatmega128.a(eewr_dword.o)
                0x0000287a                eeprom_write_dword
                0x0000287a                eeprom_write_float
 .text.avr-libc
                0x0000288a        0xa C:/Program Files (x86)/Microchip/MPLABX/v5.40/packs/Microchip/ATmega_DFP/2.2.108/gcc/dev/atmega128/avr51\libatmega128.a(eewr_word.o)
                0x0000288a                eeprom_write_word
                0x00002894                . = ALIGN (0x2)
 *(.fini9)
 .fini9         0x00002894        0x0 c:/program files (x86)/atmel/studio/7.0/toolchain/avr8/avr8-gnu-toolchain/bin/../lib/gcc/avr/5.4.0/avr51\libgcc.a(_exit.o)
                0x00002894                _exit
                0x00002894                exit
 *(.fini9)
 *(.fini8)
 *(.fini8)
 *(.fini7)
 *(.fini7)
 *(.fini6)
 *(.fini6)
 *(.fini5)
 *(.fini5)
 *(.fini4)
 *(.fini4)
 *(.fini3)
 *(.fini3)
 *(.fini2)
 *(.fini2)
 *(.fini1)
 *(.fini1)
 *(.fini0)
 .fini0         0x00002894        0x4 c:/program files (x86)/atmel/studio/7.0/toolchain/avr8/avr8-gnu-toolchain/bin/../lib/gcc/avr/5.4.0/avr51\libgcc.a(_exit.o)
 *(.fini0)
                0x00002898                _etext = .

.data           0x00800100       0xca load address 0x00002898
                0x00800100                PROVIDE (__data_start, .)
 *(.data)
 *(.data*)
 .data.keypadvalue
                0x00800100       0x10 build/default/production/Librarias/KEYPAD/keypad.o
                0x00800100                keypadvalue
 *(.gnu.linkonce.d*)
 *(.rodata)
 *(.rodata*)
 .rodata.str1.1
                0x00800110       0xb9 build/default/production/main.o
 *(.gnu.linkonce.r*)
                0x008001ca                . = ALIGN (0x2)
 *fill*         0x008001c9        0x1 
                0x008001ca                _edata = .
                0x008001ca                PROVIDE (__data_end, .)

.bss            0x008001ca      0x10a
                0x008001ca                PROVIDE (__bss_start, .)
 *(.bss)
 *(.bss*)
 .bss.UART1_LastRxError
                0x008001ca        0x1 build/default/production/Librarias/ATMEGA128API/Atmega128API.o
 .bss.UART1_RxTail
                0x008001cb        0x1 build/default/production/Librarias/ATMEGA128API/Atmega128API.o
 .bss.UART1_RxHead
                0x008001cc        0x1 build/default/production/Librarias/ATMEGA128API/Atmega128API.o
 .bss.UART1_TxTail
                0x008001cd        0x1 build/default/production/Librarias/ATMEGA128API/Atmega128API.o
 .bss.UART1_TxHead
                0x008001ce        0x1 build/default/production/Librarias/ATMEGA128API/Atmega128API.o
 .bss.UART1_RxBuf
                0x008001cf       0x20 build/default/production/Librarias/ATMEGA128API/Atmega128API.o
 .bss.UART1_TxBuf
                0x008001ef       0x20 build/default/production/Librarias/ATMEGA128API/Atmega128API.o
 .bss.UART_LastRxError
                0x0080020f        0x1 build/default/production/Librarias/ATMEGA128API/Atmega128API.o
 .bss.UART_RxTail
                0x00800210        0x1 build/default/production/Librarias/ATMEGA128API/Atmega128API.o
 .bss.UART_RxHead
                0x00800211        0x1 build/default/production/Librarias/ATMEGA128API/Atmega128API.o
 .bss.UART_TxTail
                0x00800212        0x1 build/default/production/Librarias/ATMEGA128API/Atmega128API.o
 .bss.UART_TxHead
                0x00800213        0x1 build/default/production/Librarias/ATMEGA128API/Atmega128API.o
 .bss.UART_RxBuf
                0x00800214       0x20 build/default/production/Librarias/ATMEGA128API/Atmega128API.o
 .bss.UART_TxBuf
                0x00800234       0x20 build/default/production/Librarias/ATMEGA128API/Atmega128API.o
 .bss.adc_n_sample
                0x00800254        0x1 build/default/production/Librarias/ATMEGA128API/Atmega128API.o
 .bss.adc_tmp   0x00800255        0x2 build/default/production/Librarias/ATMEGA128API/Atmega128API.o
 .bss.adc_sample
                0x00800257        0x2 build/default/production/Librarias/ATMEGA128API/Atmega128API.o
 .bss.ADC_SELECTOR
                0x00800259        0x2 build/default/production/Librarias/ATMEGA128API/Atmega128API.o
 .bss.ADC_N_CHANNEL
                0x0080025b        0x2 build/default/production/Librarias/ATMEGA128API/Atmega128API.o
 .bss.ADC_CHANNEL_GAIN
                0x0080025d       0x10 build/default/production/Librarias/ATMEGA128API/Atmega128API.o
 .bss.ADC_VALUE
                0x0080026d       0x10 build/default/production/Librarias/ATMEGA128API/Atmega128API.o
 .bss.string    0x0080027d        0x2 build/default/production/main.o
                0x0080027d                string
 *(COMMON)
 COMMON         0x0080027f       0x14 build/default/production/Librarias/FUNCTION/function.o
                0x0080027f                FUNCstr
 COMMON         0x00800293       0x25 build/default/production/Librarias/KEYPAD/keypad.o
                0x00800293                keypad_PORT
                0x00800295                keypad_dataf
                0x00800299                keypad_datai
                0x0080029d                KEYPADSTRINGINDEX
                0x0080029e                keypad_PIN
                0x008002a0                data
                0x008002b6                keypad_DDR
 COMMON         0x008002b8        0xe build/default/production/Librarias/LCD/lcd.o
                0x008002b8                lcd0_PIN
                0x008002ba                lcd1_DDR
                0x008002bc                lcd1_detect
                0x008002bd                lcd1_PIN
                0x008002bf                lcd0_DDR
                0x008002c1                lcd0_detect
                0x008002c2                lcd0_PORT
                0x008002c4                lcd1_PORT
 COMMON         0x008002c6        0xe build/default/production/Librarias/LFSM/lfsm.o
                0x008002c6                tmp2
                0x008002cd                tmp1
                0x008002d4                PROVIDE (__bss_end, .)
                0x00002898                __data_load_start = LOADADDR (.data)
                0x00002962                __data_load_end = (__data_load_start + SIZEOF (.data))

.noinit         0x008002d4        0x0
                [!provide]                PROVIDE (__noinit_start, .)
 *(.noinit*)
                [!provide]                PROVIDE (__noinit_end, .)
                0x008002d4                _end = .
                [!provide]                PROVIDE (__heap_start, .)

.eeprom         0x00810000        0x0
 *(.eeprom*)
                0x00810000                __eeprom_end = .

.fuse
 *(.fuse)
 *(.lfuse)
 *(.hfuse)
 *(.efuse)

.lock
 *(.lock*)

.signature
 *(.signature*)

.user_signatures
 *(.user_signatures*)

.stab
 *(.stab)

.stabstr
 *(.stabstr)

.stab.excl
 *(.stab.excl)

.stab.exclstr
 *(.stab.exclstr)

.stab.index
 *(.stab.index)

.stab.indexstr
 *(.stab.indexstr)

.comment        0x00000000       0x30
 *(.comment)
 .comment       0x00000000       0x30 build/default/production/Librarias/ATMEGA128API/Atmega128API.o
                                 0x31 (size before relaxing)
 .comment       0x00000030       0x31 build/default/production/Librarias/FUNCTION/function.o
 .comment       0x00000030       0x31 build/default/production/Librarias/KEYPAD/keypad.o
 .comment       0x00000030       0x31 build/default/production/Librarias/LCD/lcd.o
 .comment       0x00000030       0x31 build/default/production/Librarias/LFSM/lfsm.o
 .comment       0x00000030       0x31 build/default/production/Librarias/EEPROM/eeprom.o
 .comment       0x00000030       0x31 build/default/production/main.o

.note.gnu.avr.deviceinfo
                0x00000000       0x3c
 .note.gnu.avr.deviceinfo
                0x00000000       0x3c C:/Program Files (x86)/Microchip/MPLABX/v5.40/packs/Microchip/ATmega_DFP/2.2.108/gcc/dev/atmega128/avr51/crtatmega128.o

.note.gnu.build-id
 *(.note.gnu.build-id)

.debug
 *(.debug)

.line
 *(.line)

.debug_srcinfo
 *(.debug_srcinfo)

.debug_sfnames
 *(.debug_sfnames)

.debug_aranges  0x00000000      0x160
 *(.debug_aranges)
 .debug_aranges
                0x00000000       0x20 C:/Program Files (x86)/Microchip/MPLABX/v5.40/packs/Microchip/ATmega_DFP/2.2.108/gcc/dev/atmega128/avr51\libatmega128.a(eerd_block.o)
 .debug_aranges
                0x00000020       0x20 C:/Program Files (x86)/Microchip/MPLABX/v5.40/packs/Microchip/ATmega_DFP/2.2.108/gcc/dev/atmega128/avr51\libatmega128.a(eerd_byte.o)
 .debug_aranges
                0x00000040       0x20 C:/Program Files (x86)/Microchip/MPLABX/v5.40/packs/Microchip/ATmega_DFP/2.2.108/gcc/dev/atmega128/avr51\libatmega128.a(eerd_word.o)
 .debug_aranges
                0x00000060       0x20 C:/Program Files (x86)/Microchip/MPLABX/v5.40/packs/Microchip/ATmega_DFP/2.2.108/gcc/dev/atmega128/avr51\libatmega128.a(eeupd_block.o)
 .debug_aranges
                0x00000080       0x20 C:/Program Files (x86)/Microchip/MPLABX/v5.40/packs/Microchip/ATmega_DFP/2.2.108/gcc/dev/atmega128/avr51\libatmega128.a(eeupd_byte.o)
 .debug_aranges
                0x000000a0       0x20 C:/Program Files (x86)/Microchip/MPLABX/v5.40/packs/Microchip/ATmega_DFP/2.2.108/gcc/dev/atmega128/avr51\libatmega128.a(eeupd_dword.o)
 .debug_aranges
                0x000000c0       0x20 C:/Program Files (x86)/Microchip/MPLABX/v5.40/packs/Microchip/ATmega_DFP/2.2.108/gcc/dev/atmega128/avr51\libatmega128.a(eeupd_word.o)
 .debug_aranges
                0x000000e0       0x20 C:/Program Files (x86)/Microchip/MPLABX/v5.40/packs/Microchip/ATmega_DFP/2.2.108/gcc/dev/atmega128/avr51\libatmega128.a(eewr_block.o)
 .debug_aranges
                0x00000100       0x20 C:/Program Files (x86)/Microchip/MPLABX/v5.40/packs/Microchip/ATmega_DFP/2.2.108/gcc/dev/atmega128/avr51\libatmega128.a(eewr_byte.o)
 .debug_aranges
                0x00000120       0x20 C:/Program Files (x86)/Microchip/MPLABX/v5.40/packs/Microchip/ATmega_DFP/2.2.108/gcc/dev/atmega128/avr51\libatmega128.a(eewr_dword.o)
 .debug_aranges
                0x00000140       0x20 C:/Program Files (x86)/Microchip/MPLABX/v5.40/packs/Microchip/ATmega_DFP/2.2.108/gcc/dev/atmega128/avr51\libatmega128.a(eewr_word.o)

.debug_pubnames
 *(.debug_pubnames)

.debug_info     0x00000000      0xe27
 *(.debug_info .gnu.linkonce.wi.*)
 .debug_info    0x00000000      0x780 C:/Program Files (x86)/Microchip/MPLABX/v5.40/packs/Microchip/ATmega_DFP/2.2.108/gcc/dev/atmega128/avr51/crtatmega128.o
 .debug_info    0x00000780       0x9b C:/Program Files (x86)/Microchip/MPLABX/v5.40/packs/Microchip/ATmega_DFP/2.2.108/gcc/dev/atmega128/avr51\libatmega128.a(eerd_block.o)
 .debug_info    0x0000081b       0x9a C:/Program Files (x86)/Microchip/MPLABX/v5.40/packs/Microchip/ATmega_DFP/2.2.108/gcc/dev/atmega128/avr51\libatmega128.a(eerd_byte.o)
 .debug_info    0x000008b5       0x9a C:/Program Files (x86)/Microchip/MPLABX/v5.40/packs/Microchip/ATmega_DFP/2.2.108/gcc/dev/atmega128/avr51\libatmega128.a(eerd_word.o)
 .debug_info    0x0000094f       0x9c C:/Program Files (x86)/Microchip/MPLABX/v5.40/packs/Microchip/ATmega_DFP/2.2.108/gcc/dev/atmega128/avr51\libatmega128.a(eeupd_block.o)
 .debug_info    0x000009eb       0x9b C:/Program Files (x86)/Microchip/MPLABX/v5.40/packs/Microchip/ATmega_DFP/2.2.108/gcc/dev/atmega128/avr51\libatmega128.a(eeupd_byte.o)
 .debug_info    0x00000a86       0x9c C:/Program Files (x86)/Microchip/MPLABX/v5.40/packs/Microchip/ATmega_DFP/2.2.108/gcc/dev/atmega128/avr51\libatmega128.a(eeupd_dword.o)
 .debug_info    0x00000b22       0x9b C:/Program Files (x86)/Microchip/MPLABX/v5.40/packs/Microchip/ATmega_DFP/2.2.108/gcc/dev/atmega128/avr51\libatmega128.a(eeupd_word.o)
 .debug_info    0x00000bbd       0x9b C:/Program Files (x86)/Microchip/MPLABX/v5.40/packs/Microchip/ATmega_DFP/2.2.108/gcc/dev/atmega128/avr51\libatmega128.a(eewr_block.o)
 .debug_info    0x00000c58       0x9a C:/Program Files (x86)/Microchip/MPLABX/v5.40/packs/Microchip/ATmega_DFP/2.2.108/gcc/dev/atmega128/avr51\libatmega128.a(eewr_byte.o)
 .debug_info    0x00000cf2       0x9b C:/Program Files (x86)/Microchip/MPLABX/v5.40/packs/Microchip/ATmega_DFP/2.2.108/gcc/dev/atmega128/avr51\libatmega128.a(eewr_dword.o)
 .debug_info    0x00000d8d       0x9a C:/Program Files (x86)/Microchip/MPLABX/v5.40/packs/Microchip/ATmega_DFP/2.2.108/gcc/dev/atmega128/avr51\libatmega128.a(eewr_word.o)

.debug_abbrev   0x00000000      0x7f4
 *(.debug_abbrev)
 .debug_abbrev  0x00000000      0x718 C:/Program Files (x86)/Microchip/MPLABX/v5.40/packs/Microchip/ATmega_DFP/2.2.108/gcc/dev/atmega128/avr51/crtatmega128.o
 .debug_abbrev  0x00000718       0x14 C:/Program Files (x86)/Microchip/MPLABX/v5.40/packs/Microchip/ATmega_DFP/2.2.108/gcc/dev/atmega128/avr51\libatmega128.a(eerd_block.o)
 .debug_abbrev  0x0000072c       0x14 C:/Program Files (x86)/Microchip/MPLABX/v5.40/packs/Microchip/ATmega_DFP/2.2.108/gcc/dev/atmega128/avr51\libatmega128.a(eerd_byte.o)
 .debug_abbrev  0x00000740       0x14 C:/Program Files (x86)/Microchip/MPLABX/v5.40/packs/Microchip/ATmega_DFP/2.2.108/gcc/dev/atmega128/avr51\libatmega128.a(eerd_word.o)
 .debug_abbrev  0x00000754       0x14 C:/Program Files (x86)/Microchip/MPLABX/v5.40/packs/Microchip/ATmega_DFP/2.2.108/gcc/dev/atmega128/avr51\libatmega128.a(eeupd_block.o)
 .debug_abbrev  0x00000768       0x14 C:/Program Files (x86)/Microchip/MPLABX/v5.40/packs/Microchip/ATmega_DFP/2.2.108/gcc/dev/atmega128/avr51\libatmega128.a(eeupd_byte.o)
 .debug_abbrev  0x0000077c       0x14 C:/Program Files (x86)/Microchip/MPLABX/v5.40/packs/Microchip/ATmega_DFP/2.2.108/gcc/dev/atmega128/avr51\libatmega128.a(eeupd_dword.o)
 .debug_abbrev  0x00000790       0x14 C:/Program Files (x86)/Microchip/MPLABX/v5.40/packs/Microchip/ATmega_DFP/2.2.108/gcc/dev/atmega128/avr51\libatmega128.a(eeupd_word.o)
 .debug_abbrev  0x000007a4       0x14 C:/Program Files (x86)/Microchip/MPLABX/v5.40/packs/Microchip/ATmega_DFP/2.2.108/gcc/dev/atmega128/avr51\libatmega128.a(eewr_block.o)
 .debug_abbrev  0x000007b8       0x14 C:/Program Files (x86)/Microchip/MPLABX/v5.40/packs/Microchip/ATmega_DFP/2.2.108/gcc/dev/atmega128/avr51\libatmega128.a(eewr_byte.o)
 .debug_abbrev  0x000007cc       0x14 C:/Program Files (x86)/Microchip/MPLABX/v5.40/packs/Microchip/ATmega_DFP/2.2.108/gcc/dev/atmega128/avr51\libatmega128.a(eewr_dword.o)
 .debug_abbrev  0x000007e0       0x14 C:/Program Files (x86)/Microchip/MPLABX/v5.40/packs/Microchip/ATmega_DFP/2.2.108/gcc/dev/atmega128/avr51\libatmega128.a(eewr_word.o)

.debug_line     0x00000000      0x703
 *(.debug_line .debug_line.* .debug_line_end)
 .debug_line    0x00000000      0x16a C:/Program Files (x86)/Microchip/MPLABX/v5.40/packs/Microchip/ATmega_DFP/2.2.108/gcc/dev/atmega128/avr51/crtatmega128.o
 .debug_line    0x0000016a       0xab C:/Program Files (x86)/Microchip/MPLABX/v5.40/packs/Microchip/ATmega_DFP/2.2.108/gcc/dev/atmega128/avr51\libatmega128.a(eerd_block.o)
 .debug_line    0x00000215       0x7a C:/Program Files (x86)/Microchip/MPLABX/v5.40/packs/Microchip/ATmega_DFP/2.2.108/gcc/dev/atmega128/avr51\libatmega128.a(eerd_byte.o)
 .debug_line    0x0000028f       0x67 C:/Program Files (x86)/Microchip/MPLABX/v5.40/packs/Microchip/ATmega_DFP/2.2.108/gcc/dev/atmega128/avr51\libatmega128.a(eerd_word.o)
 .debug_line    0x000002f6       0xa5 C:/Program Files (x86)/Microchip/MPLABX/v5.40/packs/Microchip/ATmega_DFP/2.2.108/gcc/dev/atmega128/avr51\libatmega128.a(eeupd_block.o)
 .debug_line    0x0000039b       0xb0 C:/Program Files (x86)/Microchip/MPLABX/v5.40/packs/Microchip/ATmega_DFP/2.2.108/gcc/dev/atmega128/avr51\libatmega128.a(eeupd_byte.o)
 .debug_line    0x0000044b       0x7b C:/Program Files (x86)/Microchip/MPLABX/v5.40/packs/Microchip/ATmega_DFP/2.2.108/gcc/dev/atmega128/avr51\libatmega128.a(eeupd_dword.o)
 .debug_line    0x000004c6       0x62 C:/Program Files (x86)/Microchip/MPLABX/v5.40/packs/Microchip/ATmega_DFP/2.2.108/gcc/dev/atmega128/avr51\libatmega128.a(eeupd_word.o)
 .debug_line    0x00000528       0x80 C:/Program Files (x86)/Microchip/MPLABX/v5.40/packs/Microchip/ATmega_DFP/2.2.108/gcc/dev/atmega128/avr51\libatmega128.a(eewr_block.o)
 .debug_line    0x000005a8       0x98 C:/Program Files (x86)/Microchip/MPLABX/v5.40/packs/Microchip/ATmega_DFP/2.2.108/gcc/dev/atmega128/avr51\libatmega128.a(eewr_byte.o)
 .debug_line    0x00000640       0x68 C:/Program Files (x86)/Microchip/MPLABX/v5.40/packs/Microchip/ATmega_DFP/2.2.108/gcc/dev/atmega128/avr51\libatmega128.a(eewr_dword.o)
 .debug_line    0x000006a8       0x5b C:/Program Files (x86)/Microchip/MPLABX/v5.40/packs/Microchip/ATmega_DFP/2.2.108/gcc/dev/atmega128/avr51\libatmega128.a(eewr_word.o)

.debug_frame
 *(.debug_frame)

.debug_str      0x00000000      0x27d
 *(.debug_str)
 .debug_str     0x00000000      0x27d C:/Program Files (x86)/Microchip/MPLABX/v5.40/packs/Microchip/ATmega_DFP/2.2.108/gcc/dev/atmega128/avr51/crtatmega128.o

.debug_loc
 *(.debug_loc)

.debug_macinfo
 *(.debug_macinfo)

.debug_weaknames
 *(.debug_weaknames)

.debug_funcnames
 *(.debug_funcnames)

.debug_typenames
 *(.debug_typenames)

.debug_varnames
 *(.debug_varnames)

.debug_pubtypes
 *(.debug_pubtypes)

.debug_ranges
 *(.debug_ranges)

.debug_macro
 *(.debug_macro)
OUTPUT(dist/default/production/Atmega128Mplab_2.X.production.elf elf32-avr)
LOAD linker stubs
